
build/MCACK.elf:     file format elf32-littlearm
build/MCACK.elf
architecture: armv5te, flags 0x00000112:
EXEC_P, HAS_SYMS, D_PAGED
start address 0x00000000

Program Header:
    LOAD off    0x00010000 vaddr 0x00000000 paddr 0x00000000 align 2**16
         filesz 0x000023a2 memsz 0x000023a2 flags r-x
    LOAD off    0x00020000 vaddr 0x00400000 paddr 0x00400000 align 2**16
         filesz 0x0000000c memsz 0x000006fc flags rw-
private flags = 5000200: [Version5 EABI] [soft-float ABI]

Sections:
Idx Name          Size      VMA       LMA       File off  Algn
  0 RO_DATA       000023a2  00000000  00000000  00010000  2**3
                  CONTENTS, ALLOC, LOAD, READONLY, CODE
  1 RW_DATA       0000000c  00400000  00400000  00020000  2**2
                  CONTENTS, ALLOC, LOAD, DATA
  2 ZI_DATA       000006f0  0040000c  0040000c  0002000c  2**2
                  ALLOC
  3 .debug_info   000150c6  00000000  00000000  0002000c  2**0
                  CONTENTS, READONLY, DEBUGGING
  4 .debug_abbrev 000029c8  00000000  00000000  000350d2  2**0
                  CONTENTS, READONLY, DEBUGGING
  5 .debug_loc    00005127  00000000  00000000  00037a9a  2**0
                  CONTENTS, READONLY, DEBUGGING
  6 .debug_aranges 000006e8  00000000  00000000  0003cbc1  2**0
                  CONTENTS, READONLY, DEBUGGING
  7 .debug_ranges 00000a40  00000000  00000000  0003d2a9  2**0
                  CONTENTS, READONLY, DEBUGGING
  8 .debug_line   0000216d  00000000  00000000  0003dce9  2**0
                  CONTENTS, READONLY, DEBUGGING
  9 .debug_str    000025d4  00000000  00000000  0003fe56  2**0
                  CONTENTS, READONLY, DEBUGGING
 10 .comment      0000007f  00000000  00000000  0004242a  2**0
                  CONTENTS, READONLY
 11 .ARM.attributes 00000029  00000000  00000000  000424a9  2**0
                  CONTENTS, READONLY
 12 .debug_frame  00001440  00000000  00000000  000424d4  2**2
                  CONTENTS, READONLY, DEBUGGING
SYMBOL TABLE:
00000000 l    d  RO_DATA	00000000 RO_DATA
00400000 l    d  RW_DATA	00000000 RW_DATA
0040000c l    d  ZI_DATA	00000000 ZI_DATA
00000000 l    d  .debug_info	00000000 .debug_info
00000000 l    d  .debug_abbrev	00000000 .debug_abbrev
00000000 l    d  .debug_loc	00000000 .debug_loc
00000000 l    d  .debug_aranges	00000000 .debug_aranges
00000000 l    d  .debug_ranges	00000000 .debug_ranges
00000000 l    d  .debug_line	00000000 .debug_line
00000000 l    d  .debug_str	00000000 .debug_str
00000000 l    d  .comment	00000000 .comment
00000000 l    d  .ARM.attributes	00000000 .ARM.attributes
00000000 l    d  .debug_frame	00000000 .debug_frame
00000000 l    df *ABS*	00000000 sark.o
00000001 l       *ABS*	00000000 GNU
00000000 l       *ABS*	00000000 NULL
80000000 l       *ABS*	00000000 BIT_31
00000001 l       *ABS*	00000000 BUF_WRITE
00000012 l       *ABS*	00000000 NUM_CPUS
00000006 l       *ABS*	00000000 NUM_LINKS
00000000 l       *ABS*	00000000 ITCM_BASE
00008000 l       *ABS*	00000000 ITCM_SIZE
00008000 l       *ABS*	00000000 ITCM_TOP
00400000 l       *ABS*	00000000 DTCM_BASE
00010000 l       *ABS*	00000000 DTCM_SIZE
00410000 l       *ABS*	00000000 DTCM_TOP
70000000 l       *ABS*	00000000 SDRAM_BASE_UNBUF
60000000 l       *ABS*	00000000 SDRAM_BASE_BUF
60000000 l       *ABS*	00000000 SDRAM_BASE
08000000 l       *ABS*	00000000 SDRAM_SIZE
68000000 l       *ABS*	00000000 SDRAM_TOP
f5000000 l       *ABS*	00000000 SYSRAM_BASE_UNBUF
e5000000 l       *ABS*	00000000 SYSRAM_BASE_BUF
e5000000 l       *ABS*	00000000 SYSRAM_BASE
00008000 l       *ABS*	00000000 SYSRAM_SIZE
e5008000 l       *ABS*	00000000 SYSRAM_TOP
f6000000 l       *ABS*	00000000 ROM_BASE
00008000 l       *ABS*	00000000 ROM_SIZE
f6008000 l       *ABS*	00000000 ROM_TOP
10000000 l       *ABS*	00000000 CC_BASE_UNBUF
20000000 l       *ABS*	00000000 CC_BASE_BUF
20000000 l       *ABS*	00000000 CC_BASE
00000000 l       *ABS*	00000000 CC_TCR
00000004 l       *ABS*	00000000 CC_TXDATA
00000008 l       *ABS*	00000000 CC_TXKEY
0000000c l       *ABS*	00000000 CC_RSR
00000010 l       *ABS*	00000000 CC_RXDATA
00000014 l       *ABS*	00000000 CC_RXKEY
00000018 l       *ABS*	00000000 CC_SAR
0000001c l       *ABS*	00000000 CC_TEST
11000000 l       *ABS*	00000000 TIMER_BASE_UNBUF
21000000 l       *ABS*	00000000 TIMER_BASE_BUF
21000000 l       *ABS*	00000000 TIMER_BASE
00000020 l       *ABS*	00000000 TIMER_OFFSET
21000000 l       *ABS*	00000000 TIMER1_BASE
21000020 l       *ABS*	00000000 TIMER2_BASE
00000000 l       *ABS*	00000000 TC_LOAD
00000004 l       *ABS*	00000000 TC_COUNT
00000008 l       *ABS*	00000000 TC_CONTROL
0000000c l       *ABS*	00000000 TC_INT_CLR
00000010 l       *ABS*	00000000 TC_RAW_INT
00000014 l       *ABS*	00000000 TC_MASK_INT
00000018 l       *ABS*	00000000 TC_BG_LOAD
00000000 l       *ABS*	00000000 T1_LOAD
00000004 l       *ABS*	00000000 T1_COUNT
00000008 l       *ABS*	00000000 T1_CONTROL
0000000c l       *ABS*	00000000 T1_INT_CLR
00000010 l       *ABS*	00000000 T1_RAW_INT
00000014 l       *ABS*	00000000 T1_MASK_INT
00000018 l       *ABS*	00000000 T1_BG_LOAD
00000020 l       *ABS*	00000000 T2_LOAD
00000024 l       *ABS*	00000000 T2_COUNT
00000028 l       *ABS*	00000000 T2_CONTROL
0000002c l       *ABS*	00000000 T2_INT_CLR
00000030 l       *ABS*	00000000 T2_RAW_INT
00000034 l       *ABS*	00000000 T2_MASK_INT
00000038 l       *ABS*	00000000 T2_BG_LOAD
1f000000 l       *ABS*	00000000 VIC_BASE_UNBUF
2f000000 l       *ABS*	00000000 VIC_BASE_BUF
2f000000 l       *ABS*	00000000 VIC_BASE
00000000 l       *ABS*	00000000 VIC_IRQST
00000004 l       *ABS*	00000000 VIC_FIQST
00000008 l       *ABS*	00000000 VIC_RAW
0000000c l       *ABS*	00000000 VIC_SELECT
00000010 l       *ABS*	00000000 VIC_ENABLE
00000014 l       *ABS*	00000000 VIC_DISABLE
00000018 l       *ABS*	00000000 VIC_SOFT_SET
0000001c l       *ABS*	00000000 VIC_SOFT_CLR
00000020 l       *ABS*	00000000 VIC_PROTECT
00000030 l       *ABS*	00000000 VIC_VADDR
00000034 l       *ABS*	00000000 VIC_DEFADDR
00000100 l       *ABS*	00000000 VIC_ADDR
00000100 l       *ABS*	00000000 VIC_ADDR0
00000104 l       *ABS*	00000000 VIC_ADDR1
00000108 l       *ABS*	00000000 VIC_ADDR2
0000010c l       *ABS*	00000000 VIC_ADDR3
00000110 l       *ABS*	00000000 VIC_ADDR4
00000114 l       *ABS*	00000000 VIC_ADDR5
00000118 l       *ABS*	00000000 VIC_ADDR6
0000011c l       *ABS*	00000000 VIC_ADDR7
00000120 l       *ABS*	00000000 VIC_ADDR8
00000124 l       *ABS*	00000000 VIC_ADDR9
00000128 l       *ABS*	00000000 VIC_ADDR10
0000012c l       *ABS*	00000000 VIC_ADDR11
00000130 l       *ABS*	00000000 VIC_ADDR12
00000134 l       *ABS*	00000000 VIC_ADDR13
00000138 l       *ABS*	00000000 VIC_ADDR14
0000013c l       *ABS*	00000000 VIC_ADDR15
00000200 l       *ABS*	00000000 VIC_CNTL
00000200 l       *ABS*	00000000 VIC_CNTL0
00000204 l       *ABS*	00000000 VIC_CNTL1
00000208 l       *ABS*	00000000 VIC_CNTL2
0000020c l       *ABS*	00000000 VIC_CNTL3
00000210 l       *ABS*	00000000 VIC_CNTL4
00000214 l       *ABS*	00000000 VIC_CNTL5
00000218 l       *ABS*	00000000 VIC_CNTL6
0000021c l       *ABS*	00000000 VIC_CNTL7
00000220 l       *ABS*	00000000 VIC_CNTL8
00000224 l       *ABS*	00000000 VIC_CNTL9
00000228 l       *ABS*	00000000 VIC_CNTL10
0000022c l       *ABS*	00000000 VIC_CNTL11
00000230 l       *ABS*	00000000 VIC_CNTL12
00000234 l       *ABS*	00000000 VIC_CNTL13
00000238 l       *ABS*	00000000 VIC_CNTL14
0000023c l       *ABS*	00000000 VIC_CNTL15
00000000 l       *ABS*	00000000 WDOG_INT
00000001 l       *ABS*	00000000 SOFTWARE_INT
00000002 l       *ABS*	00000000 COMM_RX_INT
00000003 l       *ABS*	00000000 COMM_TX_INT
00000004 l       *ABS*	00000000 TIMER1_INT
00000005 l       *ABS*	00000000 TIMER2_INT
00000006 l       *ABS*	00000000 CC_RDY_INT
00000007 l       *ABS*	00000000 CC_RPE_INT
00000008 l       *ABS*	00000000 CC_RFE_INT
00000009 l       *ABS*	00000000 CC_TFL_INT
0000000a l       *ABS*	00000000 CC_TOV_INT
0000000b l       *ABS*	00000000 CC_TMT_INT
0000000c l       *ABS*	00000000 DMA_DONE_INT
0000000d l       *ABS*	00000000 DMA_ERR_INT
0000000e l       *ABS*	00000000 DMA_TO_INT
0000000f l       *ABS*	00000000 RTR_DIAG_INT
00000010 l       *ABS*	00000000 RTR_DUMP_INT
00000011 l       *ABS*	00000000 RTR_ERR_INT
00000012 l       *ABS*	00000000 CPU_INT
00000013 l       *ABS*	00000000 ETH_TX_INT
00000014 l       *ABS*	00000000 ETH_RX_INT
00000015 l       *ABS*	00000000 ETH_PHY_INT
00000016 l       *ABS*	00000000 SLOW_CLK_INT
00000017 l       *ABS*	00000000 CC_TNF_INT
00000018 l       *ABS*	00000000 CC_MC_INT
00000019 l       *ABS*	00000000 CC_P2P_INT
0000001a l       *ABS*	00000000 CC_NN_INT
0000001b l       *ABS*	00000000 CC_FR_INT
0000001c l       *ABS*	00000000 INT0_INT
0000001d l       *ABS*	00000000 INT1_INT
0000001e l       *ABS*	00000000 GPIO8_INT
0000001f l       *ABS*	00000000 GPIO9_INT
30000000 l       *ABS*	00000000 DMA_BASE_UNBUF
40000000 l       *ABS*	00000000 DMA_BASE_BUF
40000000 l       *ABS*	00000000 DMA_BASE
00000004 l       *ABS*	00000000 DMA_ADRS
00000008 l       *ABS*	00000000 DMA_ADRT
0000000c l       *ABS*	00000000 DMA_DESC
00000010 l       *ABS*	00000000 DMA_CTRL
00000014 l       *ABS*	00000000 DMA_STAT
00000018 l       *ABS*	00000000 DMA_GCTL
0000001c l       *ABS*	00000000 DMA_CRCC
00000020 l       *ABS*	00000000 DMA_CRCR
00000024 l       *ABS*	00000000 DMA_TMTV
00000028 l       *ABS*	00000000 DMA_SCTL
00000040 l       *ABS*	00000000 DMA_STAT0
00000044 l       *ABS*	00000000 DMA_STAT1
00000048 l       *ABS*	00000000 DMA_STAT2
0000004c l       *ABS*	00000000 DMA_STAT3
00000050 l       *ABS*	00000000 DMA_STAT4
00000054 l       *ABS*	00000000 DMA_STAT5
00000058 l       *ABS*	00000000 DMA_STAT6
0000005c l       *ABS*	00000000 DMA_STAT7
00000104 l       *ABS*	00000000 DMA_AD2S
00000108 l       *ABS*	00000000 DMA_AD2T
0000010c l       *ABS*	00000000 DMA_DES2
00000180 l       *ABS*	00000000 DMA_CRCT
f0000000 l       *ABS*	00000000 PL340_BASE_UNBUF
e0000000 l       *ABS*	00000000 PL340_BASE_BUF
e0000000 l       *ABS*	00000000 PL340_BASE
00000000 l       *ABS*	00000000 MC_STAT
00000004 l       *ABS*	00000000 MC_CMD
00000008 l       *ABS*	00000000 MC_DIRC
0000000c l       *ABS*	00000000 MC_MCFG
00000010 l       *ABS*	00000000 MC_REFP
00000014 l       *ABS*	00000000 MC_CASL
00000018 l       *ABS*	00000000 MC_DQSS
0000001c l       *ABS*	00000000 MC_MRD
00000020 l       *ABS*	00000000 MC_RAS
00000024 l       *ABS*	00000000 MC_RC
00000028 l       *ABS*	00000000 MC_RCD
0000002c l       *ABS*	00000000 MC_RFC
00000030 l       *ABS*	00000000 MC_RP
00000034 l       *ABS*	00000000 MC_RRD
00000038 l       *ABS*	00000000 MC_WR
0000003c l       *ABS*	00000000 MC_WTR
00000040 l       *ABS*	00000000 MC_XP
00000044 l       *ABS*	00000000 MC_XSR
00000048 l       *ABS*	00000000 MC_ESR
0000004c l       *ABS*	00000000 MC_MCFG2
00000050 l       *ABS*	00000000 MC_MCFG3
00000100 l       *ABS*	00000000 MC_QOS0
00000104 l       *ABS*	00000000 MC_QOS1
00000108 l       *ABS*	00000000 MC_QOS2
0000010c l       *ABS*	00000000 MC_QOS3
00000110 l       *ABS*	00000000 MC_QOS4
00000114 l       *ABS*	00000000 MC_QOS5
00000118 l       *ABS*	00000000 MC_QOS6
0000011c l       *ABS*	00000000 MC_QOS7
00000120 l       *ABS*	00000000 MC_QOS8
00000124 l       *ABS*	00000000 MC_QOS9
00000128 l       *ABS*	00000000 MC_QOS10
0000012c l       *ABS*	00000000 MC_QOS11
00000130 l       *ABS*	00000000 MC_QOS12
00000134 l       *ABS*	00000000 MC_QOS13
00000138 l       *ABS*	00000000 MC_QOS14
0000013c l       *ABS*	00000000 MC_QOS15
00000200 l       *ABS*	00000000 MC_CCFG0
00000204 l       *ABS*	00000000 MC_CCFG1
00000208 l       *ABS*	00000000 MC_CCFG2
0000020c l       *ABS*	00000000 MC_CCFG3
00000300 l       *ABS*	00000000 DLL_STATUS
00000304 l       *ABS*	00000000 DLL_CONFIG0
00000308 l       *ABS*	00000000 DLL_CONFIG1
f1000000 l       *ABS*	00000000 RTR_BASE_UNBUF
e1000000 l       *ABS*	00000000 RTR_BASE_BUF
e1000000 l       *ABS*	00000000 RTR_BASE
00000000 l       *ABS*	00000000 RTR_CONTROL
00000004 l       *ABS*	00000000 RTR_STATUS
00000008 l       *ABS*	00000000 RTR_EHDR
0000000c l       *ABS*	00000000 RTR_EKEY
00000010 l       *ABS*	00000000 RTR_EDAT
00000014 l       *ABS*	00000000 RTR_ESTAT
00000018 l       *ABS*	00000000 RTR_DHDR
0000001c l       *ABS*	00000000 RTR_DKEY
00000020 l       *ABS*	00000000 RTR_DDAT
00000024 l       *ABS*	00000000 RTR_DLINK
00000028 l       *ABS*	00000000 RTR_DSTAT
0000002c l       *ABS*	00000000 RTR_DGEN
00000084 l       *ABS*	00000000 RTR_FR
00000200 l       *ABS*	00000000 RTR_DGF0
00000204 l       *ABS*	00000000 RTR_DGF1
00000208 l       *ABS*	00000000 RTR_DGF2
0000020c l       *ABS*	00000000 RTR_DGF3
00000210 l       *ABS*	00000000 RTR_DGF4
00000214 l       *ABS*	00000000 RTR_DGF5
00000218 l       *ABS*	00000000 RTR_DGF6
0000021c l       *ABS*	00000000 RTR_DGF7
00000220 l       *ABS*	00000000 RTR_DGF8
00000224 l       *ABS*	00000000 RTR_DGF9
00000228 l       *ABS*	00000000 RTR_DGF10
0000022c l       *ABS*	00000000 RTR_DGF11
00000230 l       *ABS*	00000000 RTR_DGF12
00000234 l       *ABS*	00000000 RTR_DGF13
00000238 l       *ABS*	00000000 RTR_DGF14
0000023c l       *ABS*	00000000 RTR_DGF15
00000300 l       *ABS*	00000000 RTR_DGC0
00000304 l       *ABS*	00000000 RTR_DGC1
00000308 l       *ABS*	00000000 RTR_DGC2
0000030c l       *ABS*	00000000 RTR_DGC3
00000310 l       *ABS*	00000000 RTR_DGC4
00000314 l       *ABS*	00000000 RTR_DGC5
00000318 l       *ABS*	00000000 RTR_DGC6
0000031c l       *ABS*	00000000 RTR_DGC7
00000320 l       *ABS*	00000000 RTR_DGC8
00000324 l       *ABS*	00000000 RTR_DGC9
00000328 l       *ABS*	00000000 RTR_DGC10
0000032c l       *ABS*	00000000 RTR_DGC11
00000330 l       *ABS*	00000000 RTR_DGC12
00000334 l       *ABS*	00000000 RTR_DGC13
00000338 l       *ABS*	00000000 RTR_DGC14
0000033c l       *ABS*	00000000 RTR_DGC15
00000f00 l       *ABS*	00000000 RTR_TST1
00000f04 l       *ABS*	00000000 RTR_TST2
00002000 l       *ABS*	00000000 P2P_TABLE_SIZE
00000400 l       *ABS*	00000000 MC_TABLE_SIZE
00000018 l       *ABS*	00000000 MC_RAM_WIDTH
00ffffff l       *ABS*	00000000 MC_RAM_MASK
00000008 l       *ABS*	00000000 P2P_EPW
00000003 l       *ABS*	00000000 P2P_LOG_EPW
00000007 l       *ABS*	00000000 P2P_EMASK
00000003 l       *ABS*	00000000 P2P_BPE
00000007 l       *ABS*	00000000 P2P_BMASK
00db6db6 l       *ABS*	00000000 P2P_INIT
e1004000 l       *ABS*	00000000 RTR_MCRAM_BASE
e1005000 l       *ABS*	00000000 RTR_MCRAM_TOP
e1008000 l       *ABS*	00000000 RTR_MCKEY_BASE
e1009000 l       *ABS*	00000000 RTR_MCKEY_TOP
e100c000 l       *ABS*	00000000 RTR_MCMASK_BASE
e100d000 l       *ABS*	00000000 RTR_MCMASK_TOP
e1010000 l       *ABS*	00000000 RTR_P2P_BASE
e1018000 l       *ABS*	00000000 RTR_P2P_TOP
00000020 l       *ABS*	00000000 MC_CAM_WIDTH
f2000000 l       *ABS*	00000000 SYSCTL_BASE_UNBUF
e2000000 l       *ABS*	00000000 SYSCTL_BASE_BUF
e2000000 l       *ABS*	00000000 SYSCTL_BASE
5ec00000 l       *ABS*	00000000 SC_CODE
59111012 l       *ABS*	00000000 CHIP_ID_CODE
00000000 l       *ABS*	00000000 SC_CHIP_ID
00000004 l       *ABS*	00000000 SC_CPU_DIS
00000008 l       *ABS*	00000000 SC_SET_IRQ
0000000c l       *ABS*	00000000 SC_CLR_IRQ
00000010 l       *ABS*	00000000 SC_SET_OK
00000010 l       *ABS*	00000000 SC_CPU_OK
00000014 l       *ABS*	00000000 SC_CLR_OK
00000018 l       *ABS*	00000000 SC_SOFT_RST_L
0000001c l       *ABS*	00000000 SC_HARD_RST_L
00000020 l       *ABS*	00000000 SC_SUBS_RST_L
00000024 l       *ABS*	00000000 SC_SOFT_RST_P
00000028 l       *ABS*	00000000 SC_HARD_RST_P
0000002c l       *ABS*	00000000 SC_SUBS_RST_P
00000030 l       *ABS*	00000000 SC_RST_CODE
00000034 l       *ABS*	00000000 SC_MON_ID
00000038 l       *ABS*	00000000 SC_MISC_CTRL
0000003c l       *ABS*	00000000 GPIO_RES
00000040 l       *ABS*	00000000 GPIO_PORT
00000044 l       *ABS*	00000000 GPIO_DIR
00000048 l       *ABS*	00000000 GPIO_SET
0000004c l       *ABS*	00000000 GPIO_CLR
00000048 l       *ABS*	00000000 GPIO_READ
00000050 l       *ABS*	00000000 SC_PLL1
00000054 l       *ABS*	00000000 SC_PLL2
00000058 l       *ABS*	00000000 SC_FLAG
00000058 l       *ABS*	00000000 SC_SETFLAG
0000005c l       *ABS*	00000000 SC_CLRFLAG
00000060 l       *ABS*	00000000 SC_CLKMUX
00000064 l       *ABS*	00000000 SC_SLEEP
00000068 l       *ABS*	00000000 SC_TS0
0000006c l       *ABS*	00000000 SC_TS1
00000070 l       *ABS*	00000000 SC_TS2
00000080 l       *ABS*	00000000 SC_ARB0
00000100 l       *ABS*	00000000 SC_TAS0
00000180 l       *ABS*	00000000 SC_TAC0
00000200 l       *ABS*	00000000 SC_LINK_DIS
00000000 l       *ABS*	00000000 RST_POR
00000001 l       *ABS*	00000000 RST_WDT
00000002 l       *ABS*	00000000 RST_USER
00000003 l       *ABS*	00000000 RST_SW
00000004 l       *ABS*	00000000 RST_WDI
f3000000 l       *ABS*	00000000 WDOG_BASE_UNBUF
e3000000 l       *ABS*	00000000 WDOG_BASE_BUF
e3000000 l       *ABS*	00000000 WDOG_BASE
00000000 l       *ABS*	00000000 WD_LOAD
00000004 l       *ABS*	00000000 WD_COUNT
00000008 l       *ABS*	00000000 WD_CTRL
0000000c l       *ABS*	00000000 WD_INTCLR
00000010 l       *ABS*	00000000 WD_RAWINT
00000014 l       *ABS*	00000000 WD_MSKINT
00000c00 l       *ABS*	00000000 WD_LOCK
1acce551 l       *ABS*	00000000 WD_CODE
00000001 l       *ABS*	00000000 WD_INT_B
00000002 l       *ABS*	00000000 WD_RST_B
f4000000 l       *ABS*	00000000 ETH_BASE_UNBUF
e4000000 l       *ABS*	00000000 ETH_BASE_BUF
e4000000 l       *ABS*	00000000 ETH_BASE
e4000000 l       *ABS*	00000000 ETH_TX_BASE
00000600 l       *ABS*	00000000 ETH_TX_SIZE
e4000600 l       *ABS*	00000000 ETH_TX_TOP
e4004000 l       *ABS*	00000000 ETH_RX_BASE
00000c00 l       *ABS*	00000000 ETH_RX_SIZE
e4004c00 l       *ABS*	00000000 ETH_RX_TOP
e4008000 l       *ABS*	00000000 ETH_RX_DESC_RAM
e400c000 l       *ABS*	00000000 ETH_REGS
00000000 l       *ABS*	00000000 ETH_CONTROL
00000004 l       *ABS*	00000000 ETH_STATUS
00000008 l       *ABS*	00000000 ETH_TX_LEN
0000000c l       *ABS*	00000000 ETH_TX_CMD
00000010 l       *ABS*	00000000 ETH_RX_CMD
00000014 l       *ABS*	00000000 ETH_MAC_LO
00000018 l       *ABS*	00000000 ETH_MAC_HI
0000001c l       *ABS*	00000000 ETH_PHY_CTRL
00000020 l       *ABS*	00000000 ETH_INT_CLR
00000024 l       *ABS*	00000000 ETH_RX_BUF_RP
0000002c l       *ABS*	00000000 ETH_RX_DESC_RP
00000001 l       *ABS*	00000000 ETH_TX_CLR
00000010 l       *ABS*	00000000 ETH_RX_CLR
00000001 l       *ABS*	00000000 PHY_CTRL_NRST
00000002 l       *ABS*	00000000 PHY_CTRL_DIN
00000004 l       *ABS*	00000000 PHY_CTRL_DOUT
00000008 l       *ABS*	00000000 PHY_CTRL_OE
00000010 l       *ABS*	00000000 PHY_CTRL_CLK
00000000 l       *ABS*	00000000 PKT_MC
00400000 l       *ABS*	00000000 PKT_P2P
00800000 l       *ABS*	00000000 PKT_NN
00a00000 l       *ABS*	00000000 PKT_NND
00c00000 l       *ABS*	00000000 PKT_FR
00020000 l       *ABS*	00000000 PKT_PL
00020000 l       *ABS*	00000000 PKT_MC_PL
00420000 l       *ABS*	00000000 PKT_P2P_PL
00820000 l       *ABS*	00000000 PKT_NN_PL
00c20000 l       *ABS*	00000000 PKT_FR_PL
0000000a l       *ABS*	00000000 CLK_XTAL_MHZ
0007011a l       *ABS*	00000000 PLL_260
0007011e l       *ABS*	00000000 PLL_300
00070121 l       *ABS*	00000000 PLL_330
00070128 l       *ABS*	00000000 PLL_400
00000050 l       *ABS*	00000000 PLL_LOCK_TIME
809488a5 l       *ABS*	00000000 PLL_CLK_SEL
00000020 l       *ABS*	00000000 SERIAL_NCS
00000010 l       *ABS*	00000000 SERIAL_CLK
00000008 l       *ABS*	00000000 SERIAL_SI
00000004 l       *ABS*	00000000 SERIAL_SO
00000038 l       *ABS*	00000000 SERIAL_OE
80000000 l       *ABS*	00000000 SDRAM_TQ
40000000 l       *ABS*	00000000 SDRAM_DPD
20000000 l       *ABS*	00000000 SDRAM_HERE
08000000 l       *ABS*	00000000 JTAG_NTRST
04000000 l       *ABS*	00000000 JTAG_TMS
02000000 l       *ABS*	00000000 JTAG_TDI
01000000 l       *ABS*	00000000 JTAG_TCK
00100000 l       *ABS*	00000000 JTAG_RTCK
00080000 l       *ABS*	00000000 JTAG_TDO
00008000 l       *ABS*	00000000 JTAG_INT
00000001 l       *ABS*	00000000 LED_0
00000010 l       *ABS*	00000000 MODE_USER
00000011 l       *ABS*	00000000 MODE_FIQ
00000012 l       *ABS*	00000000 MODE_IRQ
00000013 l       *ABS*	00000000 MODE_SVC
00000017 l       *ABS*	00000000 MODE_ABT
0000001b l       *ABS*	00000000 MODE_UND
0000001f l       *ABS*	00000000 MODE_SYS
00000020 l       *ABS*	00000000 THUMB_BIT
00000080 l       *ABS*	00000000 IMASK_IRQ
00000040 l       *ABS*	00000000 IMASK_FIQ
000000c0 l       *ABS*	00000000 IMASK_ALL
00000001 l       *ABS*	00000000 SARK_EVENT
00000180 l       *ABS*	00000000 SVC_STACK
00000100 l       *ABS*	00000000 IRQ_STACK
00000100 l       *ABS*	00000000 FIQ_STACK
00000004 l       *ABS*	00000000 NUM_SDP_MSGS
0000000f l       *ABS*	00000000 SARK_SLOT
00000010 l       *ABS*	00000000 INIT_EVENTS
deaddead l       *ABS*	00000000 DEAD_WORD
00000001 l       *ABS*	00000000 APLX_ACOPY
00000002 l       *ABS*	00000000 APLX_RCOPY
00000003 l       *ABS*	00000000 APLX_FILL
00000004 l       *ABS*	00000000 APLX_EXEC
000000ff l       *ABS*	00000000 APLX_END
00000010 l       *ABS*	00000000 APLX_ENTRY_SIZE
00000040 l       *ABS*	00000000 APLX_BUF_SIZE
00007fc0 l       *ABS*	00000000 APLX_BUFFER
000000ff l       *ABS*	00000000 TAG_NONE
00000000 l       *ABS*	00000000 TAG_HOST
00000001 l       *ABS*	00000000 RTR_ALLOC_FIRST
00000400 l       *ABS*	00000000 RTR_ALLOC_LAST
000003ff l       *ABS*	00000000 RTR_ALLOC_MAX
00000001 l       *ABS*	00000000 ALLOC_LOCK
00000002 l       *ABS*	00000000 ALLOC_ID
00000005 l       *ABS*	00000000 A_LOCK_SEMA
00000001 l       *ABS*	00000000 A_RTE_RESET
00000002 l       *ABS*	00000000 A_RTE_UNDEF
00000003 l       *ABS*	00000000 A_RTE_SVC
00000004 l       *ABS*	00000000 A_RTE_PABT
00000005 l       *ABS*	00000000 A_RTE_DABT
00000006 l       *ABS*	00000000 A_RTE_IRQ
00000007 l       *ABS*	00000000 A_RTE_FIQ
00000008 l       *ABS*	00000000 A_RTE_VIC
00000002 l       *ABS*	00000000 A_STATE_RTE
00000006 l       *ABS*	00000000 EVENT_COUNT
00000000 l       *ABS*	00000000 CMD_VER
00000001 l       *ABS*	00000000 CMD_RUN
00000002 l       *ABS*	00000000 CMD_READ
00000003 l       *ABS*	00000000 CMD_WRITE
00000004 l       *ABS*	00000000 CMD_APLX
00000005 l       *ABS*	00000000 CMD_FILL
00000010 l       *ABS*	00000000 CMD_REMAP
00000011 l       *ABS*	00000000 CMD_LINK_READ
00000012 l       *ABS*	00000000 CMD_LINK_WRITE
00000013 l       *ABS*	00000000 CMD_AR
00000014 l       *ABS*	00000000 CMD_NNP
00000016 l       *ABS*	00000000 CMD_SIG
00000017 l       *ABS*	00000000 CMD_FFD
00000018 l       *ABS*	00000000 CMD_AS
00000019 l       *ABS*	00000000 CMD_LED
0000001a l       *ABS*	00000000 CMD_IPTAG
0000001b l       *ABS*	00000000 CMD_SROM
0000001c l       *ABS*	00000000 CMD_ALLOC
0000001d l       *ABS*	00000000 CMD_RTR
0000001f l       *ABS*	00000000 CMD_INFO
00000040 l       *ABS*	00000000 CMD_TUBE
00000080 l       *ABS*	00000000 RC_OK
00000081 l       *ABS*	00000000 RC_LEN
00000082 l       *ABS*	00000000 RC_SUM
00000083 l       *ABS*	00000000 RC_CMD
00000084 l       *ABS*	00000000 RC_ARG
00000085 l       *ABS*	00000000 RC_PORT
00000086 l       *ABS*	00000000 RC_TIMEOUT
00000087 l       *ABS*	00000000 RC_ROUTE
00000088 l       *ABS*	00000000 RC_CPU
00000089 l       *ABS*	00000000 RC_DEAD
0000008a l       *ABS*	00000000 RC_BUF
0000008b l       *ABS*	00000000 RC_P2P_NOREPLY
0000008c l       *ABS*	00000000 RC_P2P_REJECT
0000008d l       *ABS*	00000000 RC_P2P_BUSY
0000008e l       *ABS*	00000000 RC_P2P_TIMEOUT
0000008f l       *ABS*	00000000 RC_PKT_TX
00000000 l       *ABS*	00000000 TYPE_BYTE
00000001 l       *ABS*	00000000 TYPE_HALF
00000002 l       *ABS*	00000000 TYPE_WORD
00000008 l       *ABS*	00000000 NUM_SDP_PORTS
00000005 l       *ABS*	00000000 PORT_SHIFT
000000e0 l       *ABS*	00000000 PORT_MASK
0000001f l       *ABS*	00000000 CPU_MASK
000000ff l       *ABS*	00000000 PORT_ETH
00000100 l       *ABS*	00000000 SDP_BUF_SIZE
00000080 l       *ABS*	00000000 VCPU_SIZE
0000002c l       *ABS*	00000000 VCPU_RT_CODE
0000002e l       *ABS*	00000000 VCPU_CPU_STATE
0000002f l       *ABS*	00000000 VCPU_APP_ID
0000001c l       *ABS*	00000000 SARK_MSG_INT
0000001d l       *ABS*	00000000 SARK_SIG_INT
00000000 l       *ABS*	00000000 SARK_VIRT_CPU
00000008 l       *ABS*	00000000 SARK_RANDOM
00000030 l       *ABS*	00000000 SARK_CPU_CLK
00000020 l       *ABS*	00000000 SV_SSIZE
00000060 l       *ABS*	00000000 SV_USIZE
00000080 l       *ABS*	00000000 SV_ISIZE
00000020 l       *ABS*	00000000 SV_VSIZE
00000040 l       *ABS*	00000000 SV_RSIZE
00001000 l       *ABS*	00000000 SV_SIZE
e5007fe0 l       *ABS*	00000000 SV_SROM
e5007f80 l       *ABS*	00000000 SV_UBASE
e5007f00 l       *ABS*	00000000 SV_IBASE
e5007f00 l       *ABS*	00000000 SV_SV
00000100 l       *ABS*	00000000 SYS_BOOT
e5007000 l       *ABS*	00000000 SYS_USER_TOP
e5000100 l       *ABS*	00000000 SYS_USER_BASE
e5007ee0 l       *ABS*	00000000 SV_VECTORS
e5007ea0 l       *ABS*	00000000 SV_RANDOM
e5007000 l       *ABS*	00000000 SV_VCPU
e5007900 l       *ABS*	00000000 SV_SPARE
000005a0 l       *ABS*	00000000 SPARE_SIZE
e5007fe0 l       *ABS*	00000000 SROM_FLAG_BASE
e5007f80 l       *ABS*	00000000 STATUS_MAP_BASE
e5007ee0 l       *ABS*	00000000 RST_BLOCK_BASE
00008000 l       *ABS*	00000000 SRF_PRESENT
000000f0 l       *ABS*	00000000 SRF_HW_VER
00000008 l       *ABS*	00000000 SRF_PHY_INIT
00000004 l       *ABS*	00000000 SRF_PHY_RST
00000002 l       *ABS*	00000000 SRF_PHY_WAIT
00000001 l       *ABS*	00000000 SRF_ETH
00000000 l       *ABS*	00000000 SRF_NONE
00000020 l       RO_DATA	00000000 reset_vec
00000004 l       RO_DATA	00000000 undef
00000024 l       RO_DATA	00000000 undef_vec
00000028 l       RO_DATA	00000000 svc_vec
0000002c l       RO_DATA	00000000 pabt_vec
00000030 l       RO_DATA	00000000 dabt_vec
0000003c l       RO_DATA	00000000 fiq_vec
00000078 l       RO_DATA	00000000 reset_entry
000000d8 l       RO_DATA	00000000 undef_error
000000e0 l       RO_DATA	00000000 svc_error
000000e8 l       RO_DATA	00000000 pabt_error
000000f0 l       RO_DATA	00000000 dabt_error
00000034 l       RO_DATA	00000000 aplx_proc
00000038 l       RO_DATA	00000000 irq_vec
000000f8 l       RO_DATA	00000000 irq_error
00000100 l       RO_DATA	00000000 fiq_error
00000040 l       RO_DATA	00000000 svc_stack
00000042 l       RO_DATA	00000000 irq_stack
00000044 l       RO_DATA	00000000 fiq_stack
00000046 l       RO_DATA	00000000 stack_size
00000048 l       RO_DATA	00000000 code_top
0000004c l       RO_DATA	00000000 heap_base
00000050 l       RO_DATA	00000000 stack_top
00000054 l       RO_DATA	00000000 stack_fill
00000058 l       RO_DATA	00000000 num_msgs
00000059 l       RO_DATA	00000000 sark_slot
0000005a l       RO_DATA	00000000 num_events
0000005b l       RO_DATA	00000000 api
0000005c l       RO_DATA	00000000 app_id
0000005d l       RO_DATA	00000000 app_flags
0000005e l       RO_DATA	00000000 __PAD
00000060 l       RO_DATA	00000000 event_vec
000000d0 l       RO_DATA	00000000 reset_error
00000114 l       RO_DATA	00000000 exc_error
00000138 l       RO_DATA	00000000 cc_error
000001fc l       RO_DATA	00000000 lg1
00000238 l       RO_DATA	00000000 ws1
00000298 l       RO_DATA	00000000 wc2
00000280 l       RO_DATA	00000000 wc1
000002c4 l       RO_DATA	00000000 delay1
0000038c l       RO_DATA	00000000 aplx_buffer
00000390 l       RO_DATA	00000000 aplx_loader
0000037c l       RO_DATA	00000000 aplx_l0
000003a8 l       RO_DATA	00000000 aplx_copy
000003a4 l       RO_DATA	00000000 aplx_rcopy
000003b6 l       RO_DATA	00000000 aplx_fill
000003c6 l       RO_DATA	00000000 aplx_exec
000003bc l       RO_DATA	00000000 aplx_l1
00000000 l    df *ABS*	00000000 sark_base.c
00000000 l    df *ABS*	00000000 sark_event.c
00000000 l    df *ABS*	00000000 sark_timer.c
00000000 l    df *ABS*	00000000 sark_hw.c
00000000 l    df *ABS*	00000000 sark_isr.c
00000000 l    df *ABS*	00000000 sark_alloc.c
00000000 l    df *ABS*	00000000 sark_io.c
00000f74 l     F RO_DATA	00000040 io_buf_init
000010a0 l     F RO_DATA	000000ba io_put_fixed
0040000c l     O ZI_DATA	00000004 buf_ptr
00400010 l     O ZI_DATA	00000004 io_buf
00400014 l     O ZI_DATA	00000004 io_msg
00400018 l     O ZI_DATA	00000004 sp_ptr
00002252 l     O RO_DATA	00000011 hex
00000000 l    df *ABS*	00000000 sark_pkt.c
00000000 l    df *ABS*	00000000 sark_div0.c
00000000 l    df *ABS*	00000000 MCack_node.c
00000000 l    df *ABS*	00000000 data_specification.c
00000000 l    df *ABS*	00000000 spin1_api.c
0040001c l     O ZI_DATA	00000004 paused
00400020 l     O ZI_DATA	00000004 resume_sync
00400024 l     O ZI_DATA	00000004 run
00400028 l     O ZI_DATA	00000320 task_queue
00400348 l     O ZI_DATA	00000004 timer_phase
0040034c l     O ZI_DATA	00000004 timer_tick
00000000 l    df *ABS*	00000000 spin1_isr.c
00000000 l    df *ABS*	00000000 MCACK_build.c
00002058 l     F RO_DATA	00000008 __io_printf_from_arm
00400448 g     O ZI_DATA	00000004 old_vector
000019e0 g     F RO_DATA	0000000a spin1_start
000001e8 g     F RO_DATA	00000000 sark_lock_get
00001bb0 g     F RO_DATA	00000030 sark_pre_main
000007f8 g     F RO_DATA	00000034 sark_shmsg_get
00001b08 g     F RO_DATA	0000000c spin1_get_core_id
00001c98 g     F RO_DATA	00000074 cc_fr_ready_isr
000001b8 g     F RO_DATA	00000000 spin1_int_enable
00000040 g       *ABS*	00000000 RO_FROM
00000800 g       *ABS*	00000000 STACK_SIZE
00000362 g     F RO_DATA	00000000 sark_bx
00001708 g     F RO_DATA	00000088 spin1_callback_on
00000620 g     F RO_DATA	00000058 app_done
00000258 g     F RO_DATA	00000000 sark_msg_cpy
00000d7c g     F RO_DATA	0000003c event_alloc
000017c0 g     F RO_DATA	0000006c clean_up
00000788 g     F RO_DATA	0000001e sark_block_init
00001ed8 g     F RO_DATA	00000088 timer1_isr
00000e48 g     F RO_DATA	00000028 sark_fiq_han
00000010 g       *ABS*	00000000 APLX_ENTRY
000007d8 g     F RO_DATA	00000020 sark_msg_free
00001fa0 g     F RO_DATA	00000068 soft_int_isr
00001af8 g     F RO_DATA	00000010 spin1_send_mc_packet
000013ec g     F RO_DATA	00000028 configure_dma_controller
00000678 g     F RO_DATA	00000090 c_main
00000b78 g     F RO_DATA	00000168 sark_int
00001448 g     F RO_DATA	0000016c configure_vic
00000300 g     F RO_DATA	00000000 sark_int_han
00000ce0 g     F RO_DATA	00000058 event_wait
00000b64 g     F RO_DATA	00000014 sark_wait
000001d8 g     F RO_DATA	00000000 spin1_mode_restore
000001a8 g     F RO_DATA	00000000 spin1_irq_disable
00000b54 g     F RO_DATA	00000010 sark_cmd_fill
00000db8 g     F RO_DATA	00000050 sark_vic_init
00001e60 g     F RO_DATA	00000078 dma_done_fiqsr
0000016c g     F RO_DATA	00000000 cpu_shutdown
000001d8 g     F RO_DATA	00000000 cpu_int_restore
0040044c g     O ZI_DATA	00000048 diagnostics
00410000 g       *ABS*	00000000 STACK_TOP
004006fc g       ZI_DATA	00000000 HEAP_BASE
00000e70 g     F RO_DATA	000000cc sark_xalloc
00400494 g     O ZI_DATA	00000004 old_enable
00400354 g     O ZI_DATA	00000004 num_children
00400358 g     O ZI_DATA	00000004 mask
00001414 g     F RO_DATA	00000034 configure_timer1
00000364 g     F RO_DATA	00000000 __gnu_thumb1_case_uqi
0040035c g     O ZI_DATA	00000004 sync_count
00400498 g     O ZI_DATA	00000004 user_arg1
0000082c g     F RO_DATA	00000024 sark_shmsg_free
00000334 g     F RO_DATA	00000000 schedule
00001d44 g     F RO_DATA	0000008c cc_tx_empty_isr
0000012c g     F RO_DATA	00000000 rt_error
00001c60 g     F RO_DATA	00000038 cc_rx_ready_fiqsr
00400360 g     O ZI_DATA	00000004 child_key
00400364 g     O ZI_DATA	00000004 final_ack
00001b14 g     F RO_DATA	0000000c spin1_get_chip_id
00400004 g     O RW_DATA	00000004 fr_pkt_prio
00000764 g     F RO_DATA	00000010 sark_cpu_state
00400350 g     O ZI_DATA	00000001 user_pending
00400008 g     O RW_DATA	00000004 mc_pkt_prio
00001790 g     F RO_DATA	0000000c spin1_get_simulation_time
00001be0 g     F RO_DATA	0000000a sark_post_main
000023d4 g       *ABS*	00000000 RW_FROM
000001a8 g     F RO_DATA	00000000 cpu_irq_disable
00000000 g       RO_DATA	00000000 cpu_reset
000002d0 g     F RO_DATA	00000000 sark_div10
00000108 g       RO_DATA	00000000 vic_error
00400000 g       *ABS*	00000000 DTCM_BASE
000019ea g     F RO_DATA	00000008 spin1_delay_us
000021e0 g     O RO_DATA	00000006 build_name
00000360  w    F RO_DATA	00000000 sark_config
00000d38 g     F RO_DATA	0000002c event_pause
000021e8 g     O RO_DATA	00000004 build_date
0000020c g     F RO_DATA	00000000 sark_lock_free
00000f3c g     F RO_DATA	00000018 sark_alloc
00400000 g       *ABS*	00000000 RW_BASE
000019f4 g     F RO_DATA	00000104 spin1_send_packet
0000000c g       ZI_DATA	00000000 RW_LENGTH
00002008 g     F RO_DATA	00000050 soft_int_fiqsr
00001620 g     F RO_DATA	000000e8 dispatch
00000190 g     F RO_DATA	00000000 cpu_init_mode
00000268 g     F RO_DATA	00000000 sark_word_cpy
00000040 g       *ABS*	00000000 APLX_SIZE
0000017c g     F RO_DATA	00000000 cpu_sleep
00400000 g     O RW_DATA	00000004 fiq_event
0040049c g     O ZI_DATA	00000001 leadAp
00400374 g     O ZI_DATA	0000003c sark
000009a8 g     F RO_DATA	00000098 sark_msg_send
000001e0 g     F RO_DATA	00000000 spin1_wfi
00000a40 g     F RO_DATA	00000050 sark_cmd_ver
000004f0 g     F RO_DATA	00000110 app_init
000001e0 g     F RO_DATA	00000000 cpu_wfi
00000d64 g     F RO_DATA	00000018 event_stop
00000708 g     F RO_DATA	00000044 data_specification_get_data_address
000015b4 g     F RO_DATA	00000044 resume
000001c8 g     F RO_DATA	00000000 cpu_int_disable
00000e08 g     F RO_DATA	00000040 sark_vic_set
00000f54 g     F RO_DATA	0000001e sark_heap_init
00001d0c g     F RO_DATA	00000038 cc_fr_ready_fiqsr
0000179c g     F RO_DATA	00000024 spin1_exit
004003b0 g     O ZI_DATA	00000098 event
00002060 g       RO_DATA	00000000 __init_array_end
0000074c g     F RO_DATA	0000000c data_specification_get_region
00000af0 g     F RO_DATA	00000064 sark_cmd_write
00001bec g     F RO_DATA	00000074 cc_rx_ready_isr
0000086c  w    F RO_DATA	0000013c sark_init
00000758  w    F RO_DATA	0000000c rte_handler
00000374 g     F RO_DATA	00000000 sark_aplx
0000182c g     F RO_DATA	00000078 report_debug
0000115c g     F RO_DATA	00000290 io_printf
004004a0 g     O ZI_DATA	00000148 dma_queue
00000234 g     F RO_DATA	00000000 sark_word_set
004005e8 g     O ZI_DATA	00000004 old_select
000018a4 g     F RO_DATA	00000048 report_warns
00400368 g     O ZI_DATA	00000004 coreID
00001dd0 g     F RO_DATA	00000090 dma_done_isr
004005ec g     O ZI_DATA	00000004 ticks
00000330 g     F RO_DATA	00000000 null_int_han
00001b20 g     F RO_DATA	00000090 schedule_sysmode
0040036c g     O ZI_DATA	00000004 chipID
00001f60 g     F RO_DATA	00000040 timer1_fiqsr
00000220 g     F RO_DATA	00000000 sark_str_cpy
000015f8 g     F RO_DATA	00000028 resume_wait
0040000c g       *ABS*	00000000 ZI_BASE
00000000 g       *ABS*	00000000 RO_BASE
00000600 g     F RO_DATA	00000020 app_end
000001b8 g     F RO_DATA	00000000 cpu_int_enable
004005f0 g     O ZI_DATA	00000004 user_arg0
00000774 g     F RO_DATA	00000014 sark_app_lead
00000000 g       *ABS*	00000000 ITCM_BASE
000018ec g     F RO_DATA	000000f4 start
00002060 g       RO_DATA	00000000 __init_array_start
004005f4 g     O ZI_DATA	00000040 callback
00000850 g     F RO_DATA	0000001c sark_call_cpp_constructors
00000fb4 g     F RO_DATA	000000ec io_put_char
00400370 g     O ZI_DATA	00000004 parent_key
000001c8 g     F RO_DATA	00000000 spin1_int_disable
00000a90 g     F RO_DATA	00000060 sark_cmd_read
000006f0 g       *ABS*	00000000 ZI_LENGTH
000023a4 g       RW_DATA	00000000 RO_LENGTH
000007a8 g     F RO_DATA	00000030 sark_msg_get
000002bc g     F RO_DATA	00000000 sark_delay_us
00400634 g     O ZI_DATA	000000c8 tx_packet_queue
000003cc g     F RO_DATA	00000124 sync_check



Disassembly of section RO_DATA:

00000000 <cpu_reset>:
       0:	e59ff018 	ldr	pc, [pc, #24]	; 20 <reset_vec>

00000004 <undef>:
       4:	e59ff018 	ldr	pc, [pc, #24]	; 24 <undef_vec>
       8:	e59ff018 	ldr	pc, [pc, #24]	; 28 <svc_vec>
       c:	e59ff018 	ldr	pc, [pc, #24]	; 2c <pabt_vec>
      10:	e59ff018 	ldr	pc, [pc, #24]	; 30 <dabt_vec>
      14:	ebfffffa 	bl	4 <undef>
      18:	e51ffff0 	ldr	pc, [pc, #-4080]	; fffff030 <ROM_TOP+0x9ff7030>
      1c:	e59ff018 	ldr	pc, [pc, #24]	; 3c <fiq_vec>

00000020 <reset_vec>:
      20:	00000078 	.word	0x00000078

00000024 <undef_vec>:
      24:	000000d8 	.word	0x000000d8

00000028 <svc_vec>:
      28:	000000e0 	.word	0x000000e0

0000002c <pabt_vec>:
      2c:	000000e8 	.word	0x000000e8

00000030 <dabt_vec>:
      30:	000000f0 	.word	0x000000f0

00000034 <aplx_proc>:
      34:	00000375 	.word	0x00000375

00000038 <irq_vec>:
      38:	000000f8 	.word	0x000000f8

0000003c <fiq_vec>:
      3c:	00000100 	.word	0x00000100

00000040 <svc_stack>:
      40:	0060      	.short	0x0060

00000042 <irq_stack>:
      42:	0040      	.short	0x0040

00000044 <fiq_stack>:
      44:	0040      	.short	0x0040

00000046 <stack_size>:
      46:	0800      	.short	0x0800

00000048 <code_top>:
      48:	000023a4 	.word	0x000023a4

0000004c <heap_base>:
      4c:	004006fc 	.word	0x004006fc

00000050 <stack_top>:
      50:	00410000 	.word	0x00410000

00000054 <stack_fill>:
      54:	deaddead 	.word	0xdeaddead

00000058 <num_msgs>:
      58:	04          	.byte	0x04

00000059 <sark_slot>:
      59:	0f          	.byte	0x0f

0000005a <num_events>:
      5a:	10          	.byte	0x10

0000005b <api>:
	...

0000005c <app_id>:
	...

0000005d <app_flags>:
	...

0000005e <__PAD>:
	...

00000060 <event_vec>:
	...

00000078 <reset_entry>:
      78:	e24f1060 	sub	r1, pc, #96	; 0x60
      7c:	e1c103bc 	strh	r0, [r1, #60]	; 0x3c
      80:	e28f0048 	add	r0, pc, #72	; 0x48
      84:	e5810000 	str	r0, [r1]
      88:	e59f00f4 	ldr	r0, [pc, #244]	; 184 <DMA_CRCT+0x4>
      8c:	ee010f10 	mcr	15, 0, r0, cr1, cr0, {0}
      90:	e321f0d3 	msr	CPSR_c, #211	; 0xd3
      94:	e3a0d902 	mov	sp, #32768	; 0x8000
      98:	fa0000b0 	blx	360 <sark_config>
      9c:	e51fd054 	ldr	sp, [pc, #-84]	; 50 <stack_top>
      a0:	e15f26b2 	ldrh	r2, [pc, #-98]	; 46 <stack_size>
      a4:	e51f1058 	ldr	r1, [pc, #-88]	; 54 <stack_fill>
      a8:	e04d0002 	sub	r0, sp, r2
      ac:	eb000060 	bl	234 <sark_word_set>
      b0:	e1a0000d 	mov	r0, sp
      b4:	fa0001ec 	blx	86c <sark_init>
      b8:	e121f000 	msr	CPSR_c, r0
      bc:	fa0002a8 	blx	b64 <sark_wait>
      c0:	fa0006ba 	blx	1bb0 <sark_pre_main>
      c4:	eb00016b 	bl	678 <c_main>
      c8:	fa0006c4 	blx	1be0 <sark_post_main>
      cc:	eb00002a 	bl	17c <cpu_sleep>

000000d0 <reset_error>:
      d0:	e3a00001 	mov	r0, #1
      d4:	ea000014 	b	12c <rt_error>

000000d8 <undef_error>:
      d8:	e3a0b002 	mov	fp, #2
      dc:	ea00000c 	b	114 <exc_error>

000000e0 <svc_error>:
      e0:	e3a0b003 	mov	fp, #3
      e4:	ea00000a 	b	114 <exc_error>

000000e8 <pabt_error>:
      e8:	e3a0b004 	mov	fp, #4
      ec:	ea000008 	b	114 <exc_error>

000000f0 <dabt_error>:
      f0:	e3a0b005 	mov	fp, #5
      f4:	ea000006 	b	114 <exc_error>

000000f8 <irq_error>:
      f8:	e3a0b006 	mov	fp, #6
      fc:	ea000004 	b	114 <exc_error>

00000100 <fiq_error>:
     100:	e3a0b007 	mov	fp, #7
     104:	ea000002 	b	114 <exc_error>

00000108 <vic_error>:
     108:	e3a0b008 	mov	fp, #8
     10c:	e3a0042f 	mov	r0, #788529152	; 0x2f000000
     110:	e5900030 	ldr	r0, [r0, #48]	; 0x30

00000114 <exc_error>:
     114:	e1a0a00e 	mov	sl, lr
     118:	e14f8000 	mrs	r8, SPSR
     11c:	e38890c0 	orr	r9, r8, #192	; 0xc0
     120:	e3c99020 	bic	r9, r9, #32
     124:	e12ff009 	msr	CPSR_fsxc, r9
     128:	ea000002 	b	138 <cc_error>

0000012c <rt_error>:
     12c:	e1a0b000 	mov	fp, r0
     130:	e10f8000 	mrs	r8, CPSR
     134:	e1a0a00e 	mov	sl, lr

00000138 <cc_error>:
     138:	e59fc048 	ldr	ip, [pc, #72]	; 188 <DMA_CRCT+0x8>
     13c:	e59cc000 	ldr	ip, [ip]
     140:	e3a09080 	mov	r9, #128	; 0x80
     144:	e59fe040 	ldr	lr, [pc, #64]	; 18c <DMA_CRCT+0xc>
     148:	e02ee99c 	mla	lr, ip, r9, lr
     14c:	e1a0900d 	mov	r9, sp
     150:	e88e07ff 	stm	lr, {r0, r1, r2, r3, r4, r5, r6, r7, r8, r9, sl}
     154:	e5ceb02c 	strb	fp, [lr, #44]	; 0x2c
     158:	e3a08002 	mov	r8, #2
     15c:	e5ce802e 	strb	r8, [lr, #46]	; 0x2e
     160:	e1a0000b 	mov	r0, fp
     164:	e321f0d3 	msr	CPSR_c, #211	; 0xd3
     168:	fa00017a 	blx	758 <rte_handler>

0000016c <cpu_shutdown>:
     16c:	e321f0d3 	msr	CPSR_c, #211	; 0xd3
     170:	e3a0042f 	mov	r0, #788529152	; 0x2f000000
     174:	e3e01000 	mvn	r1, #0
     178:	e5801014 	str	r1, [r0, #20]

0000017c <cpu_sleep>:
     17c:	ee070f90 	mcr	15, 0, r0, cr7, cr0, {4}
     180:	eafffffd 	b	17c <cpu_sleep>
     184:	00001f7e 	.word	0x00001f7e
     188:	00400374 	.word	0x00400374
     18c:	e5007000 	.word	0xe5007000

00000190 <cpu_init_mode>:
     190:	e10f3000 	mrs	r3, CPSR
     194:	e121f001 	msr	CPSR_c, r1
     198:	e1a0d000 	mov	sp, r0
     19c:	e12ff003 	msr	CPSR_fsxc, r3
     1a0:	e0400102 	sub	r0, r0, r2, lsl #2
     1a4:	e12fff1e 	bx	lr

000001a8 <cpu_irq_disable>:
     1a8:	e10f0000 	mrs	r0, CPSR
     1ac:	e3801080 	orr	r1, r0, #128	; 0x80
     1b0:	e121f001 	msr	CPSR_c, r1
     1b4:	e12fff1e 	bx	lr

000001b8 <cpu_int_enable>:
     1b8:	e10f0000 	mrs	r0, CPSR
     1bc:	e3c010c0 	bic	r1, r0, #192	; 0xc0
     1c0:	e121f001 	msr	CPSR_c, r1
     1c4:	e12fff1e 	bx	lr

000001c8 <cpu_int_disable>:
     1c8:	e10f0000 	mrs	r0, CPSR
     1cc:	e38010c0 	orr	r1, r0, #192	; 0xc0
     1d0:	e121f001 	msr	CPSR_c, r1
     1d4:	e12fff1e 	bx	lr

000001d8 <cpu_int_restore>:
     1d8:	e12ff000 	msr	CPSR_fsxc, r0
     1dc:	e12fff1e 	bx	lr

000001e0 <cpu_wfi>:
     1e0:	ee070f90 	mcr	15, 0, r0, cr7, cr0, {4}
     1e4:	e12fff1e 	bx	lr

000001e8 <sark_lock_get>:
     1e8:	e3a0c4e2 	mov	ip, #-503316480	; 0xe2000000
     1ec:	e08cc100 	add	ip, ip, r0, lsl #2
     1f0:	e10f0000 	mrs	r0, CPSR
     1f4:	e38010c0 	orr	r1, r0, #192	; 0xc0
     1f8:	e121f001 	msr	CPSR_c, r1

000001fc <lg1>:
     1fc:	e59c1100 	ldr	r1, [ip, #256]	; 0x100
     200:	e3110102 	tst	r1, #-2147483648	; 0x80000000
     204:	1afffffc 	bne	1fc <lg1>
     208:	e12fff1e 	bx	lr

0000020c <sark_lock_free>:
     20c:	e3a0c4e2 	mov	ip, #-503316480	; 0xe2000000
     210:	e08c1101 	add	r1, ip, r1, lsl #2
     214:	e5911180 	ldr	r1, [r1, #384]	; 0x180
     218:	e121f000 	msr	CPSR_c, r0
     21c:	e12fff1e 	bx	lr

00000220 <sark_str_cpy>:
     220:	e4d12001 	ldrb	r2, [r1], #1
     224:	e3520000 	cmp	r2, #0
     228:	e4c02001 	strb	r2, [r0], #1
     22c:	1afffffb 	bne	220 <sark_str_cpy>
     230:	e12fff1e 	bx	lr

00000234 <sark_word_set>:
     234:	e1a03001 	mov	r3, r1

00000238 <ws1>:
     238:	e2522010 	subs	r2, r2, #16
     23c:	28a0000a 	stmiacs	r0!, {r1, r3}
     240:	28a0000a 	stmiacs	r0!, {r1, r3}
     244:	2afffffb 	bcs	238 <ws1>
     248:	e1b02e82 	lsls	r2, r2, #29
     24c:	28a0000a 	stmiacs	r0!, {r1, r3}
     250:	48a00002 	stmiami	r0!, {r1}
     254:	e12fff1e 	bx	lr

00000258 <sark_msg_cpy>:
     258:	e2800004 	add	r0, r0, #4
     25c:	e2811004 	add	r1, r1, #4
     260:	e1d120b0 	ldrh	r2, [r1]
     264:	e2822004 	add	r2, r2, #4

00000268 <sark_word_cpy>:
     268:	e3120003 	tst	r2, #3
     26c:	13c22003 	bicne	r2, r2, #3
     270:	12822004 	addne	r2, r2, #4
     274:	e92d4010 	push	{r4, lr}
     278:	e2522020 	subs	r2, r2, #32
     27c:	3a000005 	bcc	298 <wc2>

00000280 <wc1>:
     280:	e8b15018 	ldm	r1!, {r3, r4, ip, lr}
     284:	e8a05018 	stmia	r0!, {r3, r4, ip, lr}
     288:	e8b15018 	ldm	r1!, {r3, r4, ip, lr}
     28c:	e8a05018 	stmia	r0!, {r3, r4, ip, lr}
     290:	e2522020 	subs	r2, r2, #32
     294:	2afffff9 	bcs	280 <wc1>

00000298 <wc2>:
     298:	e1b0ce02 	lsls	ip, r2, #28
     29c:	28b15018 	ldmcs	r1!, {r3, r4, ip, lr}
     2a0:	28a05018 	stmiacs	r0!, {r3, r4, ip, lr}
     2a4:	48b10018 	ldmmi	r1!, {r3, r4}
     2a8:	48a00018 	stmiami	r0!, {r3, r4}
     2ac:	e1b0cf02 	lsls	ip, r2, #30
     2b0:	24913004 	ldrcs	r3, [r1], #4
     2b4:	24803004 	strcs	r3, [r0], #4
     2b8:	e8bd8010 	pop	{r4, pc}

000002bc <sark_delay_us>:
     2bc:	4903      	ldr	r1, [pc, #12]	; (2cc <delay1+0x8>)
     2be:	8809      	ldrh	r1, [r1, #0]
     2c0:	4341      	muls	r1, r0
     2c2:	0888      	lsrs	r0, r1, #2

000002c4 <delay1>:
     2c4:	3801      	subs	r0, #1
     2c6:	d2fd      	bcs.n	2c4 <delay1>
     2c8:	4770      	bx	lr
     2ca:	0000      	.short	0x0000
     2cc:	004003a4 	.word	0x004003a4

000002d0 <sark_div10>:
     2d0:	e241200a 	sub	r2, r1, #10
     2d4:	e0411121 	sub	r1, r1, r1, lsr #2
     2d8:	e0811221 	add	r1, r1, r1, lsr #4
     2dc:	e0811421 	add	r1, r1, r1, lsr #8
     2e0:	e0811821 	add	r1, r1, r1, lsr #16
     2e4:	e1a011a1 	lsr	r1, r1, #3
     2e8:	e0813101 	add	r3, r1, r1, lsl #2
     2ec:	e0522083 	subs	r2, r2, r3, lsl #1
     2f0:	52811001 	addpl	r1, r1, #1
     2f4:	4282200a 	addmi	r2, r2, #10
     2f8:	e8800006 	stm	r0, {r1, r2}
     2fc:	e12fff1e 	bx	lr

00000300 <sark_int_han>:
     300:	e92d500f 	push	{r0, r1, r2, r3, ip, lr}
     304:	e24e0004 	sub	r0, lr, #4
     308:	e14fc000 	mrs	ip, SPSR
     30c:	e321f01f 	msr	CPSR_c, #31
     310:	e92d5000 	push	{ip, lr}
     314:	fa000217 	blx	b78 <sark_int>
     318:	e8bd5000 	pop	{ip, lr}
     31c:	e321f092 	msr	CPSR_c, #146	; 0x92
     320:	e16ff00c 	msr	SPSR_fsxc, ip
     324:	e3a0042f 	mov	r0, #788529152	; 0x2f000000
     328:	e5800030 	str	r0, [r0, #48]	; 0x30
     32c:	e8bd500f 	pop	{r0, r1, r2, r3, ip, lr}

00000330 <null_int_han>:
     330:	e25ef004 	subs	pc, lr, #4

00000334 <schedule>:
     334:	e92d5000 	push	{ip, lr}
     338:	e10fc000 	mrs	ip, CPSR
     33c:	e3cce01f 	bic	lr, ip, #31
     340:	e38ee01f 	orr	lr, lr, #31
     344:	e121f00e 	msr	CPSR_c, lr
     348:	e92d5000 	push	{ip, lr}
     34c:	fa0005f3 	blx	1b20 <schedule_sysmode>
     350:	e8bd5000 	pop	{ip, lr}
     354:	e121f00c 	msr	CPSR_c, ip
     358:	e8bd5000 	pop	{ip, lr}
     35c:	e12fff1e 	bx	lr

00000360 <sark_config>:
     360:	4770      	bx	lr

00000362 <sark_bx>:
     362:	4700      	bx	r0

00000364 <__gnu_thumb1_case_uqi>:
     364:	468c      	mov	ip, r1
     366:	4671      	mov	r1, lr
     368:	3901      	subs	r1, #1
     36a:	5c09      	ldrb	r1, [r1, r0]
     36c:	0049      	lsls	r1, r1, #1
     36e:	448e      	add	lr, r1
     370:	4661      	mov	r1, ip
     372:	4770      	bx	lr

00000374 <sark_aplx>:
     374:	b5f2      	push	{r1, r4, r5, r6, r7, lr}
     376:	4905      	ldr	r1, [pc, #20]	; (38c <aplx_buffer>)
     378:	a605      	add	r6, pc, #20	; (adr r6, 390 <aplx_loader>)
     37a:	2740      	movs	r7, #64	; 0x40

0000037c <aplx_l0>:
     37c:	ce3c      	ldmia	r6!, {r2, r3, r4, r5}
     37e:	c13c      	stmia	r1!, {r2, r3, r4, r5}
     380:	3f10      	subs	r7, #16
     382:	d1fb      	bne.n	37c <aplx_l0>
     384:	1c04      	adds	r4, r0, #0
     386:	393f      	subs	r1, #63	; 0x3f
     388:	4708      	bx	r1
	...

0000038c <aplx_buffer>:
     38c:	00007fc0 	.word	0x00007fc0

00000390 <aplx_loader>:
     390:	cc0f      	ldmia	r4!, {r0, r1, r2, r3}
     392:	2801      	cmp	r0, #1
     394:	d008      	beq.n	3a8 <aplx_copy>
     396:	2802      	cmp	r0, #2
     398:	d004      	beq.n	3a4 <aplx_rcopy>
     39a:	2803      	cmp	r0, #3
     39c:	d00b      	beq.n	3b6 <aplx_fill>
     39e:	2804      	cmp	r0, #4
     3a0:	d011      	beq.n	3c6 <aplx_exec>
     3a2:	bdf2      	pop	{r1, r4, r5, r6, r7, pc}

000003a4 <aplx_rcopy>:
     3a4:	1912      	adds	r2, r2, r4
     3a6:	3a10      	subs	r2, #16

000003a8 <aplx_copy>:
     3a8:	cae1      	ldmia	r2!, {r0, r5, r6, r7}
     3aa:	c1e1      	stmia	r1!, {r0, r5, r6, r7}
     3ac:	cae1      	ldmia	r2!, {r0, r5, r6, r7}
     3ae:	c1e1      	stmia	r1!, {r0, r5, r6, r7}
     3b0:	3b20      	subs	r3, #32
     3b2:	d8f9      	bhi.n	3a8 <aplx_copy>
     3b4:	e7ec      	b.n	390 <aplx_loader>

000003b6 <aplx_fill>:
     3b6:	1c1d      	adds	r5, r3, #0
     3b8:	1c1e      	adds	r6, r3, #0
     3ba:	1c1f      	adds	r7, r3, #0

000003bc <aplx_l1>:
     3bc:	c1e8      	stmia	r1!, {r3, r5, r6, r7}
     3be:	c1e8      	stmia	r1!, {r3, r5, r6, r7}
     3c0:	3a20      	subs	r2, #32
     3c2:	d8fb      	bhi.n	3bc <aplx_l1>
     3c4:	e7e4      	b.n	390 <aplx_loader>

000003c6 <aplx_exec>:
     3c6:	9800      	ldr	r0, [sp, #0]
     3c8:	4788      	blx	r1
     3ca:	e7e1      	b.n	390 <aplx_loader>

000003cc <sync_check>:
     3cc:	e59f30f8 	ldr	r3, [pc, #248]	; 4cc <MC_TABLE_SIZE+0xcc>
     3d0:	e92d40f0 	push	{r4, r5, r6, r7, lr}
     3d4:	e5934000 	ldr	r4, [r3]
     3d8:	e24dd00c 	sub	sp, sp, #12
     3dc:	e0104004 	ands	r4, r0, r4
     3e0:	1a00000c 	bne	418 <MC_TABLE_SIZE+0x18>
     3e4:	e59f60e4 	ldr	r6, [pc, #228]	; 4d0 <MC_TABLE_SIZE+0xd0>
     3e8:	e3a05001 	mov	r5, #1
     3ec:	ea000000 	b	3f4 <sync_check+0x28>
     3f0:	fb00057c 	blx	19ea <spin1_delay_us>
     3f4:	e1a02004 	mov	r2, r4
     3f8:	e3a01000 	mov	r1, #0
     3fc:	e5960000 	ldr	r0, [r6]
     400:	fa0005bc 	blx	1af8 <spin1_send_mc_packet>
     404:	e3500000 	cmp	r0, #0
     408:	e1a00005 	mov	r0, r5
     40c:	0afffff7 	beq	3f0 <sync_check+0x24>
     410:	e28dd00c 	add	sp, sp, #12
     414:	e8bd80f0 	pop	{r4, r5, r6, r7, pc}
     418:	e59f70b4 	ldr	r7, [pc, #180]	; 4d4 <MC_TABLE_SIZE+0xd4>
     41c:	e58d0000 	str	r0, [sp]
     420:	e597c000 	ldr	ip, [r7]
     424:	e3a03056 	mov	r3, #86	; 0x56
     428:	e28cc001 	add	ip, ip, #1
     42c:	e59f20a4 	ldr	r2, [pc, #164]	; 4d8 <MC_TABLE_SIZE+0xd8>
     430:	e58dc004 	str	ip, [sp, #4]
     434:	e59f10a0 	ldr	r1, [pc, #160]	; 4dc <MC_TABLE_SIZE+0xdc>
     438:	e3a00002 	mov	r0, #2
     43c:	e587c000 	str	ip, [r7]
     440:	fa000345 	blx	115c <io_printf>
     444:	e59f3094 	ldr	r3, [pc, #148]	; 4e0 <MC_TABLE_SIZE+0xe0>
     448:	e5972000 	ldr	r2, [r7]
     44c:	e5933000 	ldr	r3, [r3]
     450:	e1520003 	cmp	r2, r3
     454:	3affffed 	bcc	410 <MC_TABLE_SIZE+0x10>
     458:	e59f6084 	ldr	r6, [pc, #132]	; 4e4 <MC_TABLE_SIZE+0xe4>
     45c:	e3a05000 	mov	r5, #0
     460:	e3a04001 	mov	r4, #1
     464:	ea000000 	b	46c <MC_TABLE_SIZE+0x6c>
     468:	fb00055e 	blx	19ea <spin1_delay_us>
     46c:	e5960000 	ldr	r0, [r6]
     470:	e1a02005 	mov	r2, r5
     474:	e2800001 	add	r0, r0, #1
     478:	e3a01000 	mov	r1, #0
     47c:	fa00059d 	blx	1af8 <spin1_send_mc_packet>
     480:	e3500000 	cmp	r0, #0
     484:	e1a00004 	mov	r0, r4
     488:	0afffff6 	beq	468 <MC_TABLE_SIZE+0x68>
     48c:	e59f3054 	ldr	r3, [pc, #84]	; 4e8 <MC_TABLE_SIZE+0xe8>
     490:	e5932000 	ldr	r2, [r3]
     494:	e3520000 	cmp	r2, #0
     498:	1a000004 	bne	4b0 <MC_TABLE_SIZE+0xb0>
     49c:	e3a01001 	mov	r1, #1
     4a0:	e5872000 	str	r2, [r7]
     4a4:	e5831000 	str	r1, [r3]
     4a8:	e28dd00c 	add	sp, sp, #12
     4ac:	e8bd80f0 	pop	{r4, r5, r6, r7, pc}
     4b0:	e3a00000 	mov	r0, #0
     4b4:	fa0004b8 	blx	179c <spin1_exit>
     4b8:	e3a00002 	mov	r0, #2
     4bc:	e59f1028 	ldr	r1, [pc, #40]	; 4ec <MC_TABLE_SIZE+0xec>
     4c0:	e28dd00c 	add	sp, sp, #12
     4c4:	e8bd40f0 	pop	{r4, r5, r6, r7, lr}
     4c8:	ea0006e2 	b	2058 <__io_printf_from_arm>
     4cc:	00400358 	.word	0x00400358
     4d0:	00400360 	.word	0x00400360
     4d4:	0040035c 	.word	0x0040035c
     4d8:	00002060 	.word	0x00002060
     4dc:	00002070 	.word	0x00002070
     4e0:	00400354 	.word	0x00400354
     4e4:	00400370 	.word	0x00400370
     4e8:	00400364 	.word	0x00400364
     4ec:	000020b8 	.word	0x000020b8

000004f0 <app_init>:
     4f0:	e92d4070 	push	{r4, r5, r6, lr}
     4f4:	e59f40d0 	ldr	r4, [pc, #208]	; 5cc <SPARE_SIZE+0x2c>
     4f8:	e24dd008 	sub	sp, sp, #8
     4fc:	e5942000 	ldr	r2, [r4]
     500:	e59f10c8 	ldr	r1, [pc, #200]	; 5d0 <SPARE_SIZE+0x30>
     504:	e3a00002 	mov	r0, #2
     508:	fa000313 	blx	115c <io_printf>
     50c:	e5942000 	ldr	r2, [r4]
     510:	e59f10bc 	ldr	r1, [pc, #188]	; 5d4 <SPARE_SIZE+0x34>
     514:	e3a00002 	mov	r0, #2
     518:	fa00030f 	blx	115c <io_printf>
     51c:	eb000079 	bl	708 <data_specification_get_data_address>
     520:	e59f40b0 	ldr	r4, [pc, #176]	; 5d8 <SPARE_SIZE+0x38>
     524:	e59f60b0 	ldr	r6, [pc, #176]	; 5dc <SPARE_SIZE+0x3c>
     528:	e59f50b0 	ldr	r5, [pc, #176]	; 5e0 <SPARE_SIZE+0x40>
     52c:	e1a01000 	mov	r1, r0
     530:	e3a00000 	mov	r0, #0
     534:	eb000084 	bl	74c <data_specification_get_region>
     538:	e59f10a4 	ldr	r1, [pc, #164]	; 5e4 <SPARE_SIZE+0x44>
     53c:	e1a02004 	mov	r2, r4
     540:	e5903008 	ldr	r3, [r0, #8]
     544:	e590e000 	ldr	lr, [r0]
     548:	e590c004 	ldr	ip, [r0, #4]
     54c:	e58d3000 	str	r3, [sp]
     550:	e3a00002 	mov	r0, #2
     554:	e5813000 	str	r3, [r1]
     558:	e3a03040 	mov	r3, #64	; 0x40
     55c:	e59f1084 	ldr	r1, [pc, #132]	; 5e8 <SPARE_SIZE+0x48>
     560:	e585c000 	str	ip, [r5]
     564:	e586e000 	str	lr, [r6]
     568:	fa0002fb 	blx	115c <io_printf>
     56c:	e5963000 	ldr	r3, [r6]
     570:	e58d3000 	str	r3, [sp]
     574:	e1a02004 	mov	r2, r4
     578:	e3a03041 	mov	r3, #65	; 0x41
     57c:	e59f1068 	ldr	r1, [pc, #104]	; 5ec <SPARE_SIZE+0x4c>
     580:	e3a00002 	mov	r0, #2
     584:	fa0002f4 	blx	115c <io_printf>
     588:	e5953000 	ldr	r3, [r5]
     58c:	e58d3000 	str	r3, [sp]
     590:	e1a02004 	mov	r2, r4
     594:	e3a03042 	mov	r3, #66	; 0x42
     598:	e59f1050 	ldr	r1, [pc, #80]	; 5f0 <SPARE_SIZE+0x50>
     59c:	e3a00002 	mov	r0, #2
     5a0:	fa0002ed 	blx	115c <io_printf>
     5a4:	e59f0048 	ldr	r0, [pc, #72]	; 5f4 <SPARE_SIZE+0x54>
     5a8:	e59f1048 	ldr	r1, [pc, #72]	; 5f8 <SPARE_SIZE+0x58>
     5ac:	e59f2048 	ldr	r2, [pc, #72]	; 5fc <SPARE_SIZE+0x5c>
     5b0:	e3a03000 	mov	r3, #0
     5b4:	e3a0c001 	mov	ip, #1
     5b8:	e580c000 	str	ip, [r0]
     5bc:	e5813000 	str	r3, [r1]
     5c0:	e5823000 	str	r3, [r2]
     5c4:	e28dd008 	add	sp, sp, #8
     5c8:	e8bd8070 	pop	{r4, r5, r6, pc}
     5cc:	00400368 	.word	0x00400368
     5d0:	000020c4 	.word	0x000020c4
     5d4:	000020e8 	.word	0x000020e8
     5d8:	00002060 	.word	0x00002060
     5dc:	00400370 	.word	0x00400370
     5e0:	00400360 	.word	0x00400360
     5e4:	00400354 	.word	0x00400354
     5e8:	00002108 	.word	0x00002108
     5ec:	00002130 	.word	0x00002130
     5f0:	00002154 	.word	0x00002154
     5f4:	00400358 	.word	0x00400358
     5f8:	00400364 	.word	0x00400364
     5fc:	0040035c 	.word	0x0040035c

00000600 <app_end>:
     600:	e92d4010 	push	{r4, lr}
     604:	e3a00000 	mov	r0, #0
     608:	fa000463 	blx	179c <spin1_exit>
     60c:	e59f1008 	ldr	r1, [pc, #8]	; 61c <ETH_TX_SIZE+0x1c>
     610:	e3a00002 	mov	r0, #2
     614:	e8bd4010 	pop	{r4, lr}
     618:	ea00068e 	b	2058 <__io_printf_from_arm>
     61c:	000020b8 	.word	0x000020b8

00000620 <app_done>:
     620:	e92d4070 	push	{r4, r5, r6, lr}
     624:	e59f403c 	ldr	r4, [pc, #60]	; 668 <app_done+0x48>
     628:	e5945000 	ldr	r5, [r4]
     62c:	fa000457 	blx	1790 <spin1_get_simulation_time>
     630:	e1a02005 	mov	r2, r5
     634:	e59f1030 	ldr	r1, [pc, #48]	; 66c <app_done+0x4c>
     638:	e1a03000 	mov	r3, r0
     63c:	e3a00002 	mov	r0, #2
     640:	fa0002c5 	blx	115c <io_printf>
     644:	e5942000 	ldr	r2, [r4]
     648:	e59f1020 	ldr	r1, [pc, #32]	; 670 <app_done+0x50>
     64c:	e3a00002 	mov	r0, #2
     650:	fa0002c1 	blx	115c <io_printf>
     654:	e5942000 	ldr	r2, [r4]
     658:	e59f1014 	ldr	r1, [pc, #20]	; 674 <app_done+0x54>
     65c:	e3a00002 	mov	r0, #2
     660:	e8bd4070 	pop	{r4, r5, r6, lr}
     664:	ea00067b 	b	2058 <__io_printf_from_arm>
     668:	00400368 	.word	0x00400368
     66c:	00002178 	.word	0x00002178
     670:	000021a0 	.word	0x000021a0
     674:	000021c0 	.word	0x000021c0

00000678 <c_main>:
     678:	e92d4070 	push	{r4, r5, r6, lr}
     67c:	fa000521 	blx	1b08 <spin1_get_core_id>
     680:	e59f4068 	ldr	r4, [pc, #104]	; 6f0 <ZI_LENGTH>
     684:	e5840000 	str	r0, [r4]
     688:	fa000521 	blx	1b14 <spin1_get_chip_id>
     68c:	e59f3060 	ldr	r3, [pc, #96]	; 6f4 <ZI_LENGTH+0x4>
     690:	e5830000 	str	r0, [r3]
     694:	ebffff95 	bl	4f0 <app_init>
     698:	e3e02000 	mvn	r2, #0
     69c:	e59f1054 	ldr	r1, [pc, #84]	; 6f8 <ZI_LENGTH+0x8>
     6a0:	e3a00000 	mov	r0, #0
     6a4:	fa000417 	blx	1708 <spin1_callback_on>
     6a8:	e3a00001 	mov	r0, #1
     6ac:	fa0004cb 	blx	19e0 <spin1_start>
     6b0:	e5945000 	ldr	r5, [r4]
     6b4:	fa000435 	blx	1790 <spin1_get_simulation_time>
     6b8:	e1a02005 	mov	r2, r5
     6bc:	e59f1038 	ldr	r1, [pc, #56]	; 6fc <ZI_LENGTH+0xc>
     6c0:	e1a03000 	mov	r3, r0
     6c4:	e3a00002 	mov	r0, #2
     6c8:	fa0002a3 	blx	115c <io_printf>
     6cc:	e5942000 	ldr	r2, [r4]
     6d0:	e59f1028 	ldr	r1, [pc, #40]	; 700 <ZI_LENGTH+0x10>
     6d4:	e3a00002 	mov	r0, #2
     6d8:	fa00029f 	blx	115c <io_printf>
     6dc:	e5942000 	ldr	r2, [r4]
     6e0:	e59f101c 	ldr	r1, [pc, #28]	; 704 <ZI_LENGTH+0x14>
     6e4:	e3a00002 	mov	r0, #2
     6e8:	e8bd4070 	pop	{r4, r5, r6, lr}
     6ec:	ea000659 	b	2058 <__io_printf_from_arm>
     6f0:	00400368 	.word	0x00400368
     6f4:	0040036c 	.word	0x0040036c
     6f8:	000003cc 	.word	0x000003cc
     6fc:	00002178 	.word	0x00002178
     700:	000021a0 	.word	0x000021a0
     704:	000021c0 	.word	0x000021c0

00000708 <data_specification_get_data_address>:
     708:	e92d4013 	push	{r0, r1, r4, lr}
     70c:	fa0004fd 	blx	1b08 <spin1_get_core_id>
     710:	e3a03026 	mov	r3, #38	; 0x26
     714:	e59f2028 	ldr	r2, [pc, #40]	; 744 <data_specification_get_data_address+0x3c>
     718:	e59f1028 	ldr	r1, [pc, #40]	; 748 <data_specification_get_data_address+0x40>
     71c:	e1a00380 	lsl	r0, r0, #7
     720:	e28004e5 	add	r0, r0, #-452984832	; 0xe5000000
     724:	e2800a07 	add	r0, r0, #28672	; 0x7000
     728:	e5904070 	ldr	r4, [r0, #112]	; 0x70
     72c:	e58d4000 	str	r4, [sp]
     730:	e3a00002 	mov	r0, #2
     734:	fa000288 	blx	115c <io_printf>
     738:	e1a00004 	mov	r0, r4
     73c:	e28dd008 	add	sp, sp, #8
     740:	e8bd8010 	pop	{r4, pc}
     744:	000021ec 	.word	0x000021ec
     748:	00002205 	.word	0x00002205

0000074c <data_specification_get_region>:
     74c:	e2800002 	add	r0, r0, #2
     750:	e7910100 	ldr	r0, [r1, r0, lsl #2]
     754:	e12fff1e 	bx	lr

00000758 <rte_handler>:
     758:	4b01      	ldr	r3, [pc, #4]	; (760 <rte_handler+0x8>)
     75a:	2208      	movs	r2, #8
     75c:	701a      	strb	r2, [r3, #0]
     75e:	4770      	bx	lr
     760:	e5007f2b 	.word	0xe5007f2b

00000764 <sark_cpu_state>:
     764:	4b02      	ldr	r3, [pc, #8]	; (770 <sark_cpu_state+0xc>)
     766:	69db      	ldr	r3, [r3, #28]
     768:	332e      	adds	r3, #46	; 0x2e
     76a:	7018      	strb	r0, [r3, #0]
     76c:	4770      	bx	lr
     76e:	46c0      	nop			; (mov r8, r8)
     770:	00400374 	.word	0x00400374

00000774 <sark_app_lead>:
     774:	235c      	movs	r3, #92	; 0x5c
     776:	781a      	ldrb	r2, [r3, #0]
     778:	4b02      	ldr	r3, [pc, #8]	; (784 <sark_app_lead+0x10>)
     77a:	00d2      	lsls	r2, r2, #3
     77c:	681b      	ldr	r3, [r3, #0]
     77e:	189b      	adds	r3, r3, r2
     780:	78d8      	ldrb	r0, [r3, #3]
     782:	4770      	bx	lr
     784:	e5007fe4 	.word	0xe5007fe4

00000788 <sark_block_init>:
     788:	b530      	push	{r4, r5, lr}
     78a:	000b      	movs	r3, r1
     78c:	0004      	movs	r4, r0
     78e:	3b01      	subs	r3, #1
     790:	2b00      	cmp	r3, #0
     792:	d104      	bne.n	79e <sark_block_init+0x16>
     794:	3901      	subs	r1, #1
     796:	434a      	muls	r2, r1
     798:	1880      	adds	r0, r0, r2
     79a:	6003      	str	r3, [r0, #0]
     79c:	bd30      	pop	{r4, r5, pc}
     79e:	18a5      	adds	r5, r4, r2
     7a0:	6025      	str	r5, [r4, #0]
     7a2:	002c      	movs	r4, r5
     7a4:	e7f3      	b.n	78e <sark_block_init+0x6>
	...

000007a8 <sark_msg_get>:
     7a8:	b510      	push	{r4, lr}
     7aa:	f7ff ed0e 	blx	1c8 <cpu_int_disable>
     7ae:	4a09      	ldr	r2, [pc, #36]	; (7d4 <sark_msg_get+0x2c>)
     7b0:	6a14      	ldr	r4, [r2, #32]
     7b2:	2c00      	cmp	r4, #0
     7b4:	d00a      	beq.n	7cc <sark_msg_get+0x24>
     7b6:	6823      	ldr	r3, [r4, #0]
     7b8:	6213      	str	r3, [r2, #32]
     7ba:	8c93      	ldrh	r3, [r2, #36]	; 0x24
     7bc:	8cd1      	ldrh	r1, [r2, #38]	; 0x26
     7be:	3301      	adds	r3, #1
     7c0:	041b      	lsls	r3, r3, #16
     7c2:	0c1b      	lsrs	r3, r3, #16
     7c4:	8493      	strh	r3, [r2, #36]	; 0x24
     7c6:	4299      	cmp	r1, r3
     7c8:	d200      	bcs.n	7cc <sark_msg_get+0x24>
     7ca:	84d3      	strh	r3, [r2, #38]	; 0x26
     7cc:	f7ff ed04 	blx	1d8 <cpu_int_restore>
     7d0:	0020      	movs	r0, r4
     7d2:	bd10      	pop	{r4, pc}
     7d4:	00400374 	.word	0x00400374

000007d8 <sark_msg_free>:
     7d8:	b510      	push	{r4, lr}
     7da:	0004      	movs	r4, r0
     7dc:	f7ff ecf4 	blx	1c8 <cpu_int_disable>
     7e0:	4b04      	ldr	r3, [pc, #16]	; (7f4 <sark_msg_free+0x1c>)
     7e2:	6a1a      	ldr	r2, [r3, #32]
     7e4:	6022      	str	r2, [r4, #0]
     7e6:	8c9a      	ldrh	r2, [r3, #36]	; 0x24
     7e8:	621c      	str	r4, [r3, #32]
     7ea:	3a01      	subs	r2, #1
     7ec:	849a      	strh	r2, [r3, #36]	; 0x24
     7ee:	f7ff ecf4 	blx	1d8 <cpu_int_restore>
     7f2:	bd10      	pop	{r4, pc}
     7f4:	00400374 	.word	0x00400374

000007f8 <sark_shmsg_get>:
     7f8:	b510      	push	{r4, lr}
     7fa:	2000      	movs	r0, #0
     7fc:	f7ff ecf4 	blx	1e8 <sark_lock_get>
     800:	4a09      	ldr	r2, [pc, #36]	; (828 <STACK_SIZE+0x28>)
     802:	6814      	ldr	r4, [r2, #0]
     804:	2c00      	cmp	r4, #0
     806:	d00a      	beq.n	81e <STACK_SIZE+0x1e>
     808:	6823      	ldr	r3, [r4, #0]
     80a:	6013      	str	r3, [r2, #0]
     80c:	8893      	ldrh	r3, [r2, #4]
     80e:	88d1      	ldrh	r1, [r2, #6]
     810:	3301      	adds	r3, #1
     812:	041b      	lsls	r3, r3, #16
     814:	0c1b      	lsrs	r3, r3, #16
     816:	8093      	strh	r3, [r2, #4]
     818:	4299      	cmp	r1, r3
     81a:	d200      	bcs.n	81e <STACK_SIZE+0x1e>
     81c:	80d3      	strh	r3, [r2, #6]
     81e:	2100      	movs	r1, #0
     820:	f7ff ecf4 	blx	20c <sark_lock_free>
     824:	0020      	movs	r0, r4
     826:	bd10      	pop	{r4, pc}
     828:	e5007f68 	.word	0xe5007f68

0000082c <sark_shmsg_free>:
     82c:	b510      	push	{r4, lr}
     82e:	0004      	movs	r4, r0
     830:	2000      	movs	r0, #0
     832:	f7ff ecda 	blx	1e8 <sark_lock_get>
     836:	4b05      	ldr	r3, [pc, #20]	; (84c <sark_shmsg_free+0x20>)
     838:	2100      	movs	r1, #0
     83a:	681a      	ldr	r2, [r3, #0]
     83c:	6022      	str	r2, [r4, #0]
     83e:	889a      	ldrh	r2, [r3, #4]
     840:	601c      	str	r4, [r3, #0]
     842:	3a01      	subs	r2, #1
     844:	809a      	strh	r2, [r3, #4]
     846:	f7ff ece2 	blx	20c <sark_lock_free>
     84a:	bd10      	pop	{r4, pc}
     84c:	e5007f68 	.word	0xe5007f68

00000850 <sark_call_cpp_constructors>:
     850:	b510      	push	{r4, lr}
     852:	4c04      	ldr	r4, [pc, #16]	; (864 <sark_call_cpp_constructors+0x14>)
     854:	4b04      	ldr	r3, [pc, #16]	; (868 <sark_call_cpp_constructors+0x18>)
     856:	429c      	cmp	r4, r3
     858:	d300      	bcc.n	85c <sark_call_cpp_constructors+0xc>
     85a:	bd10      	pop	{r4, pc}
     85c:	cc08      	ldmia	r4!, {r3}
     85e:	4798      	blx	r3
     860:	e7f8      	b.n	854 <sark_call_cpp_constructors+0x4>
     862:	46c0      	nop			; (mov r8, r8)
     864:	00002060 	.word	0x00002060
     868:	00002060 	.word	0x00002060

0000086c <sark_init>:
     86c:	b570      	push	{r4, r5, r6, lr}
     86e:	2520      	movs	r5, #32
     870:	0004      	movs	r4, r0
     872:	8c28      	ldrh	r0, [r5, #32]
     874:	8c6a      	ldrh	r2, [r5, #34]	; 0x22
     876:	0080      	lsls	r0, r0, #2
     878:	1a20      	subs	r0, r4, r0
     87a:	21d2      	movs	r1, #210	; 0xd2
     87c:	f7ff ec88 	blx	190 <cpu_init_mode>
     880:	8caa      	ldrh	r2, [r5, #36]	; 0x24
     882:	21d1      	movs	r1, #209	; 0xd1
     884:	f7ff ec84 	blx	190 <cpu_init_mode>
     888:	2200      	movs	r2, #0
     88a:	21df      	movs	r1, #223	; 0xdf
     88c:	f7ff ec80 	blx	190 <cpu_init_mode>
     890:	8ce9      	ldrh	r1, [r5, #38]	; 0x26
     892:	2658      	movs	r6, #88	; 0x58
     894:	0889      	lsrs	r1, r1, #2
     896:	0089      	lsls	r1, r1, #2
     898:	1a61      	subs	r1, r4, r1
     89a:	4c37      	ldr	r4, [pc, #220]	; (978 <sark_init+0x10c>)
     89c:	6121      	str	r1, [r4, #16]
     89e:	6ae8      	ldr	r0, [r5, #44]	; 0x2c
     8a0:	6160      	str	r0, [r4, #20]
     8a2:	f000 fb57 	bl	f54 <sark_heap_init>
     8a6:	4b35      	ldr	r3, [pc, #212]	; (97c <sark_init+0x110>)
     8a8:	4a35      	ldr	r2, [pc, #212]	; (980 <sark_init+0x114>)
     8aa:	681b      	ldr	r3, [r3, #0]
     8ac:	4d35      	ldr	r5, [pc, #212]	; (984 <sark_init+0x118>)
     8ae:	0e1b      	lsrs	r3, r3, #24
     8b0:	6063      	str	r3, [r4, #4]
     8b2:	189b      	adds	r3, r3, r2
     8b4:	2192      	movs	r1, #146	; 0x92
     8b6:	0049      	lsls	r1, r1, #1
     8b8:	61a0      	str	r0, [r4, #24]
     8ba:	781b      	ldrb	r3, [r3, #0]
     8bc:	6023      	str	r3, [r4, #0]
     8be:	8cab      	ldrh	r3, [r5, #36]	; 0x24
     8c0:	8623      	strh	r3, [r4, #48]	; 0x30
     8c2:	4b31      	ldr	r3, [pc, #196]	; (988 <sark_init+0x11c>)
     8c4:	60a3      	str	r3, [r4, #8]
     8c6:	7830      	ldrb	r0, [r6, #0]
     8c8:	f000 fb38 	bl	f3c <sark_alloc>
     8cc:	2292      	movs	r2, #146	; 0x92
     8ce:	0052      	lsls	r2, r2, #1
     8d0:	6220      	str	r0, [r4, #32]
     8d2:	7831      	ldrb	r1, [r6, #0]
     8d4:	f7ff ff58 	bl	788 <sark_block_init>
     8d8:	4b2c      	ldr	r3, [pc, #176]	; (98c <sark_init+0x120>)
     8da:	221f      	movs	r2, #31
     8dc:	681b      	ldr	r3, [r3, #0]
     8de:	4013      	ands	r3, r2
     8e0:	6862      	ldr	r2, [r4, #4]
     8e2:	429a      	cmp	r2, r3
     8e4:	d032      	beq.n	94c <sark_init+0xe0>
     8e6:	6823      	ldr	r3, [r4, #0]
     8e8:	4a29      	ldr	r2, [pc, #164]	; (990 <sark_init+0x124>)
     8ea:	01d8      	lsls	r0, r3, #7
     8ec:	1880      	adds	r0, r0, r2
     8ee:	6daa      	ldr	r2, [r5, #88]	; 0x58
     8f0:	2100      	movs	r1, #0
     8f2:	435a      	muls	r2, r3
     8f4:	0093      	lsls	r3, r2, #2
     8f6:	6d6a      	ldr	r2, [r5, #84]	; 0x54
     8f8:	61e0      	str	r0, [r4, #28]
     8fa:	18d3      	adds	r3, r2, r3
     8fc:	2270      	movs	r2, #112	; 0x70
     8fe:	6363      	str	r3, [r4, #52]	; 0x34
     900:	f7ff ec98 	blx	234 <sark_word_set>
     904:	69e0      	ldr	r0, [r4, #28]
     906:	2205      	movs	r2, #5
     908:	0003      	movs	r3, r0
     90a:	332e      	adds	r3, #46	; 0x2e
     90c:	701a      	strb	r2, [r3, #0]
     90e:	6862      	ldr	r2, [r4, #4]
     910:	3b01      	subs	r3, #1
     912:	701a      	strb	r2, [r3, #0]
     914:	225c      	movs	r2, #92	; 0x5c
     916:	7812      	ldrb	r2, [r2, #0]
     918:	709a      	strb	r2, [r3, #2]
     91a:	69eb      	ldr	r3, [r5, #28]
     91c:	6443      	str	r3, [r0, #68]	; 0x44
     91e:	4b1d      	ldr	r3, [pc, #116]	; (994 <sark_init+0x128>)
     920:	65c3      	str	r3, [r0, #92]	; 0x5c
     922:	491d      	ldr	r1, [pc, #116]	; (998 <sark_init+0x12c>)
     924:	3048      	adds	r0, #72	; 0x48
     926:	f7ff ec7c 	blx	220 <sark_str_cpy>
     92a:	4b1c      	ldr	r3, [pc, #112]	; (99c <sark_init+0x130>)
     92c:	22ff      	movs	r2, #255	; 0xff
     92e:	681b      	ldr	r3, [r3, #0]
     930:	0412      	lsls	r2, r2, #16
     932:	21c0      	movs	r1, #192	; 0xc0
     934:	401a      	ands	r2, r3
     936:	0289      	lsls	r1, r1, #10
     938:	428a      	cmp	r2, r1
     93a:	d104      	bne.n	946 <sark_init+0xda>
     93c:	22ff      	movs	r2, #255	; 0xff
     93e:	0212      	lsls	r2, r2, #8
     940:	4013      	ands	r3, r2
     942:	2bff      	cmp	r3, #255	; 0xff
     944:	d802      	bhi.n	94c <sark_init+0xe0>
     946:	2014      	movs	r0, #20
     948:	f7ff ebf0 	blx	12c <rt_error>
     94c:	f000 fa34 	bl	db8 <sark_vic_init>
     950:	2359      	movs	r3, #89	; 0x59
     952:	7818      	ldrb	r0, [r3, #0]
     954:	2201      	movs	r2, #1
     956:	4b12      	ldr	r3, [pc, #72]	; (9a0 <sark_init+0x134>)
     958:	2112      	movs	r1, #18
     95a:	f000 fa55 	bl	e08 <sark_vic_set>
     95e:	2201      	movs	r2, #1
     960:	2106      	movs	r1, #6
     962:	4b10      	ldr	r3, [pc, #64]	; (9a4 <sark_init+0x138>)
     964:	2010      	movs	r0, #16
     966:	f000 fa4f 	bl	e08 <sark_vic_set>
     96a:	235a      	movs	r3, #90	; 0x5a
     96c:	7818      	ldrb	r0, [r3, #0]
     96e:	f000 fa05 	bl	d7c <event_alloc>
     972:	201f      	movs	r0, #31
     974:	bd70      	pop	{r4, r5, r6, pc}
     976:	46c0      	nop			; (mov r8, r8)
     978:	00400374 	.word	0x00400374
     97c:	40000014 	.word	0x40000014
     980:	e5007f94 	.word	0xe5007f94
     984:	e5007f00 	.word	0xe5007f00
     988:	deaddead 	.word	0xdeaddead
     98c:	e2000034 	.word	0xe2000034
     990:	e5007000 	.word	0xe5007000
     994:	00030100 	.word	0x00030100
     998:	000021e0 	.word	0x000021e0
     99c:	e5007ffc 	.word	0xe5007ffc
     9a0:	00000300 	.word	0x00000300
     9a4:	00000e48 	.word	0x00000e48

000009a8 <sark_msg_send>:
     9a8:	b5f8      	push	{r3, r4, r5, r6, r7, lr}
     9aa:	0004      	movs	r4, r0
     9ac:	000f      	movs	r7, r1
     9ae:	f7ff ff23 	bl	7f8 <sark_shmsg_get>
     9b2:	1e06      	subs	r6, r0, #0
     9b4:	d032      	beq.n	a1c <sark_msg_send+0x74>
     9b6:	0021      	movs	r1, r4
     9b8:	f7ff ec4e 	blx	258 <sark_msg_cpy>
     9bc:	4d1a      	ldr	r5, [pc, #104]	; (a28 <sark_msg_send+0x80>)
     9be:	2401      	movs	r4, #1
     9c0:	69eb      	ldr	r3, [r5, #28]
     9c2:	0020      	movs	r0, r4
     9c4:	635e      	str	r6, [r3, #52]	; 0x34
     9c6:	3339      	adds	r3, #57	; 0x39
     9c8:	701c      	strb	r4, [r3, #0]
     9ca:	f7ff ec0e 	blx	1e8 <sark_lock_get>
     9ce:	4b17      	ldr	r3, [pc, #92]	; (a2c <sark_msg_send+0x84>)
     9d0:	6829      	ldr	r1, [r5, #0]
     9d2:	681a      	ldr	r2, [r3, #0]
     9d4:	469c      	mov	ip, r3
     9d6:	0023      	movs	r3, r4
     9d8:	408b      	lsls	r3, r1
     9da:	4313      	orrs	r3, r2
     9dc:	4661      	mov	r1, ip
     9de:	600b      	str	r3, [r1, #0]
     9e0:	2a00      	cmp	r2, #0
     9e2:	d106      	bne.n	9f2 <sark_msg_send+0x4a>
     9e4:	4b12      	ldr	r3, [pc, #72]	; (a30 <sark_msg_send+0x88>)
     9e6:	781b      	ldrb	r3, [r3, #0]
     9e8:	409c      	lsls	r4, r3
     9ea:	4b12      	ldr	r3, [pc, #72]	; (a34 <sark_msg_send+0x8c>)
     9ec:	18e4      	adds	r4, r4, r3
     9ee:	4b12      	ldr	r3, [pc, #72]	; (a38 <sark_msg_send+0x90>)
     9f0:	601c      	str	r4, [r3, #0]
     9f2:	2101      	movs	r1, #1
     9f4:	f7ff ec0a 	blx	20c <sark_lock_free>
     9f8:	4a10      	ldr	r2, [pc, #64]	; (a3c <sark_msg_send+0x94>)
     9fa:	69eb      	ldr	r3, [r5, #28]
     9fc:	6810      	ldr	r0, [r2, #0]
     9fe:	3339      	adds	r3, #57	; 0x39
     a00:	7819      	ldrb	r1, [r3, #0]
     a02:	2900      	cmp	r1, #0
     a04:	d003      	beq.n	a0e <sark_msg_send+0x66>
     a06:	6811      	ldr	r1, [r2, #0]
     a08:	1a09      	subs	r1, r1, r0
     a0a:	42b9      	cmp	r1, r7
     a0c:	d9f8      	bls.n	a00 <sark_msg_send+0x58>
     a0e:	781b      	ldrb	r3, [r3, #0]
     a10:	2b00      	cmp	r3, #0
     a12:	d004      	beq.n	a1e <sark_msg_send+0x76>
     a14:	0030      	movs	r0, r6
     a16:	f7ff ff09 	bl	82c <sark_shmsg_free>
     a1a:	2000      	movs	r0, #0
     a1c:	bdf8      	pop	{r3, r4, r5, r6, r7, pc}
     a1e:	6aeb      	ldr	r3, [r5, #44]	; 0x2c
     a20:	2001      	movs	r0, #1
     a22:	3301      	adds	r3, #1
     a24:	62eb      	str	r3, [r5, #44]	; 0x2c
     a26:	e7f9      	b.n	a1c <sark_msg_send+0x74>
     a28:	00400374 	.word	0x00400374
     a2c:	e5007fec 	.word	0xe5007fec
     a30:	e5007fa8 	.word	0xe5007fa8
     a34:	5ec00000 	.word	0x5ec00000
     a38:	e2000008 	.word	0xe2000008
     a3c:	e5007f10 	.word	0xe5007f10

00000a40 <sark_cmd_ver>:
     a40:	4a0d      	ldr	r2, [pc, #52]	; (a78 <sark_cmd_ver+0x38>)
     a42:	b510      	push	{r4, lr}
     a44:	6853      	ldr	r3, [r2, #4]
     a46:	6812      	ldr	r2, [r2, #0]
     a48:	021b      	lsls	r3, r3, #8
     a4a:	189b      	adds	r3, r3, r2
     a4c:	4a0b      	ldr	r2, [pc, #44]	; (a7c <sark_cmd_ver+0x3c>)
     a4e:	0004      	movs	r4, r0
     a50:	8812      	ldrh	r2, [r2, #0]
     a52:	490b      	ldr	r1, [pc, #44]	; (a80 <sark_cmd_ver+0x40>)
     a54:	0412      	lsls	r2, r2, #16
     a56:	189b      	adds	r3, r3, r2
     a58:	6143      	str	r3, [r0, #20]
     a5a:	4b0a      	ldr	r3, [pc, #40]	; (a84 <sark_cmd_ver+0x44>)
     a5c:	6183      	str	r3, [r0, #24]
     a5e:	4b0a      	ldr	r3, [pc, #40]	; (a88 <sark_cmd_ver+0x48>)
     a60:	681b      	ldr	r3, [r3, #0]
     a62:	61c3      	str	r3, [r0, #28]
     a64:	3020      	adds	r0, #32
     a66:	f7ff ebdc 	blx	220 <sark_str_cpy>
     a6a:	0020      	movs	r0, r4
     a6c:	302f      	adds	r0, #47	; 0x2f
     a6e:	4907      	ldr	r1, [pc, #28]	; (a8c <sark_cmd_ver+0x4c>)
     a70:	f7ff ebd6 	blx	220 <sark_str_cpy>
     a74:	2021      	movs	r0, #33	; 0x21
     a76:	bd10      	pop	{r4, pc}
     a78:	00400374 	.word	0x00400374
     a7c:	e5007f00 	.word	0xe5007f00
     a80:	0000223d 	.word	0x0000223d
     a84:	ffff0100 	.word	0xffff0100
     a88:	000021e8 	.word	0x000021e8
     a8c:	0000224c 	.word	0x0000224c

00000a90 <sark_cmd_read>:
     a90:	6981      	ldr	r1, [r0, #24]
     a92:	2380      	movs	r3, #128	; 0x80
     a94:	b530      	push	{r4, r5, lr}
     a96:	005b      	lsls	r3, r3, #1
     a98:	4299      	cmp	r1, r3
     a9a:	d802      	bhi.n	aa2 <sark_cmd_read+0x12>
     a9c:	69c2      	ldr	r2, [r0, #28]
     a9e:	2a02      	cmp	r2, #2
     aa0:	d904      	bls.n	aac <sark_cmd_read+0x1c>
     aa2:	2384      	movs	r3, #132	; 0x84
     aa4:	2100      	movs	r1, #0
     aa6:	8203      	strh	r3, [r0, #16]
     aa8:	0008      	movs	r0, r1
     aaa:	bd30      	pop	{r4, r5, pc}
     aac:	0003      	movs	r3, r0
     aae:	6944      	ldr	r4, [r0, #20]
     ab0:	3314      	adds	r3, #20
     ab2:	2a00      	cmp	r2, #0
     ab4:	d00f      	beq.n	ad6 <sark_cmd_read+0x46>
     ab6:	2a01      	cmp	r2, #1
     ab8:	d110      	bne.n	adc <sark_cmd_read+0x4c>
     aba:	084a      	lsrs	r2, r1, #1
     abc:	0052      	lsls	r2, r2, #1
     abe:	189a      	adds	r2, r3, r2
     ac0:	0018      	movs	r0, r3
     ac2:	4290      	cmp	r0, r2
     ac4:	d0f0      	beq.n	aa8 <sark_cmd_read+0x18>
     ac6:	1ac5      	subs	r5, r0, r3
     ac8:	5b2d      	ldrh	r5, [r5, r4]
     aca:	8005      	strh	r5, [r0, #0]
     acc:	3002      	adds	r0, #2
     ace:	e7f8      	b.n	ac2 <sark_cmd_read+0x32>
     ad0:	5d10      	ldrb	r0, [r2, r4]
     ad2:	5498      	strb	r0, [r3, r2]
     ad4:	3201      	adds	r2, #1
     ad6:	428a      	cmp	r2, r1
     ad8:	d1fa      	bne.n	ad0 <sark_cmd_read+0x40>
     ada:	e7e5      	b.n	aa8 <sark_cmd_read+0x18>
     adc:	088a      	lsrs	r2, r1, #2
     ade:	0092      	lsls	r2, r2, #2
     ae0:	189a      	adds	r2, r3, r2
     ae2:	0018      	movs	r0, r3
     ae4:	4290      	cmp	r0, r2
     ae6:	d0df      	beq.n	aa8 <sark_cmd_read+0x18>
     ae8:	1ac5      	subs	r5, r0, r3
     aea:	592d      	ldr	r5, [r5, r4]
     aec:	c020      	stmia	r0!, {r5}
     aee:	e7f9      	b.n	ae4 <sark_cmd_read+0x54>

00000af0 <sark_cmd_write>:
     af0:	6983      	ldr	r3, [r0, #24]
     af2:	2280      	movs	r2, #128	; 0x80
     af4:	b530      	push	{r4, r5, lr}
     af6:	0052      	lsls	r2, r2, #1
     af8:	4293      	cmp	r3, r2
     afa:	d802      	bhi.n	b02 <sark_cmd_write+0x12>
     afc:	69c1      	ldr	r1, [r0, #28]
     afe:	2902      	cmp	r1, #2
     b00:	d903      	bls.n	b0a <sark_cmd_write+0x1a>
     b02:	2384      	movs	r3, #132	; 0x84
     b04:	8203      	strh	r3, [r0, #16]
     b06:	2000      	movs	r0, #0
     b08:	bd30      	pop	{r4, r5, pc}
     b0a:	6942      	ldr	r2, [r0, #20]
     b0c:	3020      	adds	r0, #32
     b0e:	2900      	cmp	r1, #0
     b10:	d108      	bne.n	b24 <sark_cmd_write+0x34>
     b12:	18c3      	adds	r3, r0, r3
     b14:	0001      	movs	r1, r0
     b16:	4299      	cmp	r1, r3
     b18:	d0f5      	beq.n	b06 <sark_cmd_write+0x16>
     b1a:	780d      	ldrb	r5, [r1, #0]
     b1c:	1a0c      	subs	r4, r1, r0
     b1e:	54a5      	strb	r5, [r4, r2]
     b20:	3101      	adds	r1, #1
     b22:	e7f8      	b.n	b16 <sark_cmd_write+0x26>
     b24:	2901      	cmp	r1, #1
     b26:	d10a      	bne.n	b3e <sark_cmd_write+0x4e>
     b28:	085b      	lsrs	r3, r3, #1
     b2a:	005b      	lsls	r3, r3, #1
     b2c:	18c3      	adds	r3, r0, r3
     b2e:	0001      	movs	r1, r0
     b30:	4299      	cmp	r1, r3
     b32:	d0e8      	beq.n	b06 <sark_cmd_write+0x16>
     b34:	880d      	ldrh	r5, [r1, #0]
     b36:	1a0c      	subs	r4, r1, r0
     b38:	52a5      	strh	r5, [r4, r2]
     b3a:	3102      	adds	r1, #2
     b3c:	e7f8      	b.n	b30 <sark_cmd_write+0x40>
     b3e:	089b      	lsrs	r3, r3, #2
     b40:	009b      	lsls	r3, r3, #2
     b42:	18c3      	adds	r3, r0, r3
     b44:	0001      	movs	r1, r0
     b46:	4299      	cmp	r1, r3
     b48:	d0dd      	beq.n	b06 <sark_cmd_write+0x16>
     b4a:	1a0c      	subs	r4, r1, r0
     b4c:	680d      	ldr	r5, [r1, #0]
     b4e:	50a5      	str	r5, [r4, r2]
     b50:	3104      	adds	r1, #4
     b52:	e7f8      	b.n	b46 <sark_cmd_write+0x56>

00000b54 <sark_cmd_fill>:
     b54:	b510      	push	{r4, lr}
     b56:	69c2      	ldr	r2, [r0, #28]
     b58:	6981      	ldr	r1, [r0, #24]
     b5a:	6940      	ldr	r0, [r0, #20]
     b5c:	f7ff eb6a 	blx	234 <sark_word_set>
     b60:	2000      	movs	r0, #0
     b62:	bd10      	pop	{r4, pc}

00000b64 <sark_wait>:
     b64:	b570      	push	{r4, r5, r6, lr}
     b66:	255d      	movs	r5, #93	; 0x5d
     b68:	2401      	movs	r4, #1
     b6a:	782b      	ldrb	r3, [r5, #0]
     b6c:	4223      	tst	r3, r4
     b6e:	d100      	bne.n	b72 <sark_wait+0xe>
     b70:	bd70      	pop	{r4, r5, r6, pc}
     b72:	f7ff eb36 	blx	1e0 <cpu_wfi>
     b76:	e7f8      	b.n	b6a <sark_wait+0x6>

00000b78 <sark_int>:
     b78:	b570      	push	{r4, r5, r6, lr}
     b7a:	4d52      	ldr	r5, [pc, #328]	; (cc4 <ETH_RX_SIZE+0xc4>)
     b7c:	2301      	movs	r3, #1
     b7e:	686a      	ldr	r2, [r5, #4]
     b80:	4093      	lsls	r3, r2
     b82:	4a51      	ldr	r2, [pc, #324]	; (cc8 <ETH_RX_SIZE+0xc8>)
     b84:	189b      	adds	r3, r3, r2
     b86:	4a51      	ldr	r2, [pc, #324]	; (ccc <ETH_RX_SIZE+0xcc>)
     b88:	6013      	str	r3, [r2, #0]
     b8a:	69ea      	ldr	r2, [r5, #28]
     b8c:	0011      	movs	r1, r2
     b8e:	3138      	adds	r1, #56	; 0x38
     b90:	780b      	ldrb	r3, [r1, #0]
     b92:	2b00      	cmp	r3, #0
     b94:	d015      	beq.n	bc2 <sark_int+0x4a>
     b96:	6b16      	ldr	r6, [r2, #48]	; 0x30
     b98:	2b02      	cmp	r3, #2
     b9a:	d100      	bne.n	b9e <sark_int+0x26>
     b9c:	6310      	str	r0, [r2, #48]	; 0x30
     b9e:	2200      	movs	r2, #0
     ba0:	700a      	strb	r2, [r1, #0]
     ba2:	2b03      	cmp	r3, #3
     ba4:	d123      	bne.n	bee <sark_int+0x76>
     ba6:	1ef0      	subs	r0, r6, #3
     ba8:	280a      	cmp	r0, #10
     baa:	d80a      	bhi.n	bc2 <sark_int+0x4a>
     bac:	f7ff fbda 	bl	364 <__gnu_thumb1_case_uqi>
     bb0:	06090910 	.word	0x06090910
     bb4:	161d0c0a 	.word	0x161d0c0a
     bb8:	1616      	.short	0x1616
     bba:	16          	.byte	0x16
     bbb:	00          	.byte	0x00
     bbc:	2001      	movs	r0, #1
     bbe:	f000 f8bb 	bl	d38 <event_pause>
     bc2:	bd70      	pop	{r4, r5, r6, pc}
     bc4:	2000      	movs	r0, #0
     bc6:	e7fa      	b.n	bbe <sark_int+0x46>
     bc8:	20ff      	movs	r0, #255	; 0xff
     bca:	f000 f8cb 	bl	d64 <event_stop>
     bce:	e7f8      	b.n	bc2 <sark_int+0x4a>
     bd0:	225d      	movs	r2, #93	; 0x5d
     bd2:	7813      	ldrb	r3, [r2, #0]
     bd4:	2101      	movs	r1, #1
     bd6:	438b      	bics	r3, r1
     bd8:	7013      	strb	r3, [r2, #0]
     bda:	e7f2      	b.n	bc2 <sark_int+0x4a>
     bdc:	4b3c      	ldr	r3, [pc, #240]	; (cd0 <ETH_RX_SIZE+0xd0>)
     bde:	2280      	movs	r2, #128	; 0x80
     be0:	0592      	lsls	r2, r2, #22
     be2:	62de      	str	r6, [r3, #44]	; 0x2c
     be4:	4b3b      	ldr	r3, [pc, #236]	; (cd4 <ETH_RX_SIZE+0xd4>)
     be6:	601a      	str	r2, [r3, #0]
     be8:	e7eb      	b.n	bc2 <sark_int+0x4a>
     bea:	2210      	movs	r2, #16
     bec:	e7fa      	b.n	be4 <sark_int+0x6c>
     bee:	2b01      	cmp	r3, #1
     bf0:	d1e7      	bne.n	bc2 <sark_int+0x4a>
     bf2:	f7ff fdd9 	bl	7a8 <sark_msg_get>
     bf6:	1e04      	subs	r4, r0, #0
     bf8:	d060      	beq.n	cbc <ETH_RX_SIZE+0xbc>
     bfa:	0031      	movs	r1, r6
     bfc:	f7ff eb2c 	blx	258 <sark_msg_cpy>
     c00:	0030      	movs	r0, r6
     c02:	f7ff fe13 	bl	82c <sark_shmsg_free>
     c06:	6aab      	ldr	r3, [r5, #40]	; 0x28
     c08:	3301      	adds	r3, #1
     c0a:	62ab      	str	r3, [r5, #40]	; 0x28
     c0c:	7aa5      	ldrb	r5, [r4, #10]
     c0e:	231f      	movs	r3, #31
     c10:	0028      	movs	r0, r5
     c12:	4398      	bics	r0, r3
     c14:	d133      	bne.n	c7e <ETH_RX_SIZE+0x7e>
     c16:	88a3      	ldrh	r3, [r4, #4]
     c18:	2b17      	cmp	r3, #23
     c1a:	d802      	bhi.n	c22 <ETH_RX_SIZE+0x22>
     c1c:	2381      	movs	r3, #129	; 0x81
     c1e:	8223      	strh	r3, [r4, #16]
     c20:	e007      	b.n	c32 <ETH_RX_SIZE+0x32>
     c22:	8a23      	ldrh	r3, [r4, #16]
     c24:	2280      	movs	r2, #128	; 0x80
     c26:	8222      	strh	r2, [r4, #16]
     c28:	2b00      	cmp	r3, #0
     c2a:	d114      	bne.n	c56 <ETH_RX_SIZE+0x56>
     c2c:	0020      	movs	r0, r4
     c2e:	f7ff ff07 	bl	a40 <sark_cmd_ver>
     c32:	7aa2      	ldrb	r2, [r4, #10]
     c34:	7ae1      	ldrb	r1, [r4, #11]
     c36:	300c      	adds	r0, #12
     c38:	89a3      	ldrh	r3, [r4, #12]
     c3a:	72e2      	strb	r2, [r4, #11]
     c3c:	89e2      	ldrh	r2, [r4, #14]
     c3e:	80a0      	strh	r0, [r4, #4]
     c40:	72a1      	strb	r1, [r4, #10]
     c42:	81a2      	strh	r2, [r4, #12]
     c44:	81e3      	strh	r3, [r4, #14]
     c46:	210a      	movs	r1, #10
     c48:	0020      	movs	r0, r4
     c4a:	f7ff fead 	bl	9a8 <sark_msg_send>
     c4e:	0020      	movs	r0, r4
     c50:	f7ff fdc2 	bl	7d8 <sark_msg_free>
     c54:	e7b5      	b.n	bc2 <sark_int+0x4a>
     c56:	2b02      	cmp	r3, #2
     c58:	d103      	bne.n	c62 <ETH_RX_SIZE+0x62>
     c5a:	0020      	movs	r0, r4
     c5c:	f7ff ff18 	bl	a90 <sark_cmd_read>
     c60:	e7e7      	b.n	c32 <ETH_RX_SIZE+0x32>
     c62:	2b03      	cmp	r3, #3
     c64:	d103      	bne.n	c6e <ETH_RX_SIZE+0x6e>
     c66:	0020      	movs	r0, r4
     c68:	f7ff ff42 	bl	af0 <sark_cmd_write>
     c6c:	e7e1      	b.n	c32 <ETH_RX_SIZE+0x32>
     c6e:	2b05      	cmp	r3, #5
     c70:	d103      	bne.n	c7a <ETH_RX_SIZE+0x7a>
     c72:	0020      	movs	r0, r4
     c74:	f7ff ff6e 	bl	b54 <sark_cmd_fill>
     c78:	e7db      	b.n	c32 <ETH_RX_SIZE+0x32>
     c7a:	2383      	movs	r3, #131	; 0x83
     c7c:	e7cf      	b.n	c1e <ETH_RX_SIZE+0x1e>
     c7e:	235b      	movs	r3, #91	; 0x5b
     c80:	781b      	ldrb	r3, [r3, #0]
     c82:	2b00      	cmp	r3, #0
     c84:	d00f      	beq.n	ca6 <ETH_RX_SIZE+0xa6>
     c86:	4b14      	ldr	r3, [pc, #80]	; (cd8 <ETH_RX_SIZE+0xd8>)
     c88:	699b      	ldr	r3, [r3, #24]
     c8a:	2b00      	cmp	r3, #0
     c8c:	d0df      	beq.n	c4e <ETH_RX_SIZE+0x4e>
     c8e:	f7ff ea9c 	blx	1c8 <cpu_int_disable>
     c92:	096a      	lsrs	r2, r5, #5
     c94:	0021      	movs	r1, r4
     c96:	0006      	movs	r6, r0
     c98:	2003      	movs	r0, #3
     c9a:	f000 ff41 	bl	1b20 <schedule_sysmode>
     c9e:	0030      	movs	r0, r6
     ca0:	f7ff ea9a 	blx	1d8 <cpu_int_restore>
     ca4:	e78d      	b.n	bc2 <sark_int+0x4a>
     ca6:	4b0d      	ldr	r3, [pc, #52]	; (cdc <ETH_RX_SIZE+0xdc>)
     ca8:	681a      	ldr	r2, [r3, #0]
     caa:	2380      	movs	r3, #128	; 0x80
     cac:	055b      	lsls	r3, r3, #21
     cae:	421a      	tst	r2, r3
     cb0:	d0cd      	beq.n	c4e <ETH_RX_SIZE+0x4e>
     cb2:	4a07      	ldr	r2, [pc, #28]	; (cd0 <ETH_RX_SIZE+0xd0>)
     cb4:	6294      	str	r4, [r2, #40]	; 0x28
     cb6:	4a07      	ldr	r2, [pc, #28]	; (cd4 <ETH_RX_SIZE+0xd4>)
     cb8:	6013      	str	r3, [r2, #0]
     cba:	e782      	b.n	bc2 <sark_int+0x4a>
     cbc:	0030      	movs	r0, r6
     cbe:	f7ff fdb5 	bl	82c <sark_shmsg_free>
     cc2:	e77e      	b.n	bc2 <sark_int+0x4a>
     cc4:	00400374 	.word	0x00400374
     cc8:	5ec00000 	.word	0x5ec00000
     ccc:	e200000c 	.word	0xe200000c
     cd0:	004003b0 	.word	0x004003b0
     cd4:	1f000018 	.word	0x1f000018
     cd8:	004005f4 	.word	0x004005f4
     cdc:	1f000010 	.word	0x1f000010

00000ce0 <event_wait>:
     ce0:	4b12      	ldr	r3, [pc, #72]	; (d2c <event_wait+0x4c>)
     ce2:	b570      	push	{r4, r5, r6, lr}
     ce4:	681b      	ldr	r3, [r3, #0]
     ce6:	4d12      	ldr	r5, [pc, #72]	; (d30 <event_wait+0x50>)
     ce8:	2401      	movs	r4, #1
     cea:	409c      	lsls	r4, r3
     cec:	7eab      	ldrb	r3, [r5, #26]
     cee:	4e11      	ldr	r6, [pc, #68]	; (d34 <event_wait+0x54>)
     cf0:	2b00      	cmp	r3, #0
     cf2:	d011      	beq.n	d18 <event_wait+0x38>
     cf4:	2009      	movs	r0, #9
     cf6:	f7ff fd35 	bl	764 <sark_cpu_state>
     cfa:	6833      	ldr	r3, [r6, #0]
     cfc:	0022      	movs	r2, r4
     cfe:	439a      	bics	r2, r3
     d00:	d107      	bne.n	d12 <event_wait+0x32>
     d02:	7eaa      	ldrb	r2, [r5, #26]
     d04:	2301      	movs	r3, #1
     d06:	4053      	eors	r3, r2
     d08:	2007      	movs	r0, #7
     d0a:	76ab      	strb	r3, [r5, #26]
     d0c:	f7ff fd2a 	bl	764 <sark_cpu_state>
     d10:	bd70      	pop	{r4, r5, r6, pc}
     d12:	f7ff ea66 	blx	1e0 <cpu_wfi>
     d16:	e7f0      	b.n	cfa <event_wait+0x1a>
     d18:	2008      	movs	r0, #8
     d1a:	f7ff fd23 	bl	764 <sark_cpu_state>
     d1e:	6833      	ldr	r3, [r6, #0]
     d20:	4223      	tst	r3, r4
     d22:	d0ee      	beq.n	d02 <event_wait+0x22>
     d24:	f7ff ea5c 	blx	1e0 <cpu_wfi>
     d28:	e7f9      	b.n	d1e <event_wait+0x3e>
     d2a:	46c0      	nop			; (mov r8, r8)
     d2c:	00400374 	.word	0x00400374
     d30:	004003b0 	.word	0x004003b0
     d34:	e2000058 	.word	0xe2000058

00000d38 <event_pause>:
     d38:	b570      	push	{r4, r5, r6, lr}
     d3a:	1e05      	subs	r5, r0, #0
     d3c:	4c08      	ldr	r4, [pc, #32]	; (d60 <event_pause+0x28>)
     d3e:	d00b      	beq.n	d58 <event_pause+0x20>
     d40:	2301      	movs	r3, #1
     d42:	200a      	movs	r0, #10
     d44:	7623      	strb	r3, [r4, #24]
     d46:	f7ff fd0d 	bl	764 <sark_cpu_state>
     d4a:	6b23      	ldr	r3, [r4, #48]	; 0x30
     d4c:	2b00      	cmp	r3, #0
     d4e:	d002      	beq.n	d56 <event_pause+0x1e>
     d50:	6b61      	ldr	r1, [r4, #52]	; 0x34
     d52:	0028      	movs	r0, r5
     d54:	4798      	blx	r3
     d56:	bd70      	pop	{r4, r5, r6, pc}
     d58:	7620      	strb	r0, [r4, #24]
     d5a:	2007      	movs	r0, #7
     d5c:	e7f3      	b.n	d46 <event_pause+0xe>
     d5e:	46c0      	nop			; (mov r8, r8)
     d60:	004003b0 	.word	0x004003b0

00000d64 <event_stop>:
     d64:	4b03      	ldr	r3, [pc, #12]	; (d74 <event_stop+0x10>)
     d66:	2202      	movs	r2, #2
     d68:	761a      	strb	r2, [r3, #24]
     d6a:	4a03      	ldr	r2, [pc, #12]	; (d78 <event_stop+0x14>)
     d6c:	6cd9      	ldr	r1, [r3, #76]	; 0x4c
     d6e:	6011      	str	r1, [r2, #0]
     d70:	6398      	str	r0, [r3, #56]	; 0x38
     d72:	4770      	bx	lr
     d74:	004003b0 	.word	0x004003b0
     d78:	1f000014 	.word	0x1f000014

00000d7c <event_alloc>:
     d7c:	b570      	push	{r4, r5, r6, lr}
     d7e:	2118      	movs	r1, #24
     d80:	0006      	movs	r6, r0
     d82:	f000 f8db 	bl	f3c <sark_alloc>
     d86:	4d0b      	ldr	r5, [pc, #44]	; (db4 <event_alloc+0x38>)
     d88:	1e04      	subs	r4, r0, #0
     d8a:	d00d      	beq.n	da8 <event_alloc+0x2c>
     d8c:	0031      	movs	r1, r6
     d8e:	2218      	movs	r2, #24
     d90:	f7ff fcfa 	bl	788 <sark_block_init>
     d94:	0006      	movs	r6, r0
     d96:	f7ff ea18 	blx	1c8 <cpu_int_disable>
     d9a:	682b      	ldr	r3, [r5, #0]
     d9c:	6033      	str	r3, [r6, #0]
     d9e:	602c      	str	r4, [r5, #0]
     da0:	f7ff ea1a 	blx	1d8 <cpu_int_restore>
     da4:	2001      	movs	r0, #1
     da6:	bd70      	pop	{r4, r5, r6, pc}
     da8:	696a      	ldr	r2, [r5, #20]
     daa:	2308      	movs	r3, #8
     dac:	4313      	orrs	r3, r2
     dae:	616b      	str	r3, [r5, #20]
     db0:	e7f9      	b.n	da6 <event_alloc+0x2a>
     db2:	46c0      	nop			; (mov r8, r8)
     db4:	004003b0 	.word	0x004003b0

00000db8 <sark_vic_init>:
     db8:	4b0b      	ldr	r3, [pc, #44]	; (de8 <sark_vic_init+0x30>)
     dba:	2201      	movs	r2, #1
     dbc:	4252      	negs	r2, r2
     dbe:	b510      	push	{r4, lr}
     dc0:	601a      	str	r2, [r3, #0]
     dc2:	4b0a      	ldr	r3, [pc, #40]	; (dec <sark_vic_init+0x34>)
     dc4:	2200      	movs	r2, #0
     dc6:	601a      	str	r2, [r3, #0]
     dc8:	4b09      	ldr	r3, [pc, #36]	; (df0 <sark_vic_init+0x38>)
     dca:	4c0a      	ldr	r4, [pc, #40]	; (df4 <sark_vic_init+0x3c>)
     dcc:	601a      	str	r2, [r3, #0]
     dce:	490a      	ldr	r1, [pc, #40]	; (df8 <sark_vic_init+0x40>)
     dd0:	4b0a      	ldr	r3, [pc, #40]	; (dfc <sark_vic_init+0x44>)
     dd2:	1e58      	subs	r0, r3, #1
     dd4:	601a      	str	r2, [r3, #0]
     dd6:	38ff      	subs	r0, #255	; 0xff
     dd8:	3304      	adds	r3, #4
     dda:	6004      	str	r4, [r0, #0]
     ddc:	428b      	cmp	r3, r1
     dde:	d1f8      	bne.n	dd2 <sark_vic_init+0x1a>
     de0:	4b07      	ldr	r3, [pc, #28]	; (e00 <sark_vic_init+0x48>)
     de2:	4a08      	ldr	r2, [pc, #32]	; (e04 <sark_vic_init+0x4c>)
     de4:	601a      	str	r2, [r3, #0]
     de6:	bd10      	pop	{r4, pc}
     de8:	1f000014 	.word	0x1f000014
     dec:	1f00000c 	.word	0x1f00000c
     df0:	1f000030 	.word	0x1f000030
     df4:	00000108 	.word	0x00000108
     df8:	1f000240 	.word	0x1f000240
     dfc:	1f000200 	.word	0x1f000200
     e00:	1f000034 	.word	0x1f000034
     e04:	00000330 	.word	0x00000330

00000e08 <sark_vic_set>:
     e08:	b510      	push	{r4, lr}
     e0a:	2810      	cmp	r0, #16
     e0c:	d10b      	bne.n	e26 <sark_vic_set+0x1e>
     e0e:	62c3      	str	r3, [r0, #44]	; 0x2c
     e10:	2301      	movs	r3, #1
     e12:	480a      	ldr	r0, [pc, #40]	; (e3c <sark_vic_set+0x34>)
     e14:	408b      	lsls	r3, r1
     e16:	6003      	str	r3, [r0, #0]
     e18:	2a00      	cmp	r2, #0
     e1a:	d003      	beq.n	e24 <sark_vic_set+0x1c>
     e1c:	2301      	movs	r3, #1
     e1e:	4a08      	ldr	r2, [pc, #32]	; (e40 <sark_vic_set+0x38>)
     e20:	408b      	lsls	r3, r1
     e22:	6013      	str	r3, [r2, #0]
     e24:	bd10      	pop	{r4, pc}
     e26:	3040      	adds	r0, #64	; 0x40
     e28:	24f8      	movs	r4, #248	; 0xf8
     e2a:	0080      	lsls	r0, r0, #2
     e2c:	0564      	lsls	r4, r4, #21
     e2e:	1904      	adds	r4, r0, r4
     e30:	6023      	str	r3, [r4, #0]
     e32:	4b04      	ldr	r3, [pc, #16]	; (e44 <sark_vic_set+0x3c>)
     e34:	18c0      	adds	r0, r0, r3
     e36:	2320      	movs	r3, #32
     e38:	430b      	orrs	r3, r1
     e3a:	e7ec      	b.n	e16 <sark_vic_set+0xe>
     e3c:	1f00000c 	.word	0x1f00000c
     e40:	1f000010 	.word	0x1f000010
     e44:	1f000100 	.word	0x1f000100

00000e48 <sark_fiq_han>:
     e48:	e92d000c 	push	{r2, r3}
     e4c:	e59f2018 	ldr	r2, [pc, #24]	; e6c <sark_fiq_han+0x24>
     e50:	e3a03202 	mov	r3, #536870912	; 0x20000000
     e54:	e5933014 	ldr	r3, [r3, #20]
     e58:	e5923038 	ldr	r3, [r2, #56]	; 0x38
     e5c:	e2833001 	add	r3, r3, #1
     e60:	e5823038 	str	r3, [r2, #56]	; 0x38
     e64:	e8bd000c 	pop	{r2, r3}
     e68:	e25ef004 	subs	pc, lr, #4
     e6c:	00400374 	.word	0x00400374

00000e70 <sark_xalloc>:
     e70:	b5f7      	push	{r0, r1, r2, r4, r5, r6, r7, lr}
     e72:	0006      	movs	r6, r0
     e74:	0017      	movs	r7, r2
     e76:	2900      	cmp	r1, #0
     e78:	d101      	bne.n	e7e <sark_xalloc+0xe>
     e7a:	2000      	movs	r0, #0
     e7c:	e056      	b.n	f2c <RTR_TST2+0x28>
     e7e:	2aff      	cmp	r2, #255	; 0xff
     e80:	d8fb      	bhi.n	e7a <sark_xalloc+0xa>
     e82:	0a1d      	lsrs	r5, r3, #8
     e84:	079a      	lsls	r2, r3, #30
     e86:	d401      	bmi.n	e8c <sark_xalloc+0x1c>
     e88:	225c      	movs	r2, #92	; 0x5c
     e8a:	7815      	ldrb	r5, [r2, #0]
     e8c:	022d      	lsls	r5, r5, #8
     e8e:	19ed      	adds	r5, r5, r7
     e90:	2f00      	cmp	r7, #0
     e92:	d005      	beq.n	ea0 <sark_xalloc+0x30>
     e94:	4a27      	ldr	r2, [pc, #156]	; (f34 <RTR_TST2+0x30>)
     e96:	00a8      	lsls	r0, r5, #2
     e98:	6812      	ldr	r2, [r2, #0]
     e9a:	5882      	ldr	r2, [r0, r2]
     e9c:	2a00      	cmp	r2, #0
     e9e:	d1ec      	bne.n	e7a <sark_xalloc+0xa>
     ea0:	2203      	movs	r2, #3
     ea2:	3103      	adds	r1, #3
     ea4:	4391      	bics	r1, r2
     ea6:	3a02      	subs	r2, #2
     ea8:	3108      	adds	r1, #8
     eaa:	4013      	ands	r3, r2
     eac:	9101      	str	r1, [sp, #4]
     eae:	9300      	str	r3, [sp, #0]
     eb0:	d003      	beq.n	eba <sark_xalloc+0x4a>
     eb2:	2006      	movs	r0, #6
     eb4:	f7ff e998 	blx	1e8 <sark_lock_get>
     eb8:	4684      	mov	ip, r0
     eba:	6834      	ldr	r4, [r6, #0]
     ebc:	2200      	movs	r2, #0
     ebe:	2c00      	cmp	r4, #0
     ec0:	d107      	bne.n	ed2 <sark_xalloc+0x62>
     ec2:	9b00      	ldr	r3, [sp, #0]
     ec4:	2b00      	cmp	r3, #0
     ec6:	d0d8      	beq.n	e7a <sark_xalloc+0xa>
     ec8:	2106      	movs	r1, #6
     eca:	4660      	mov	r0, ip
     ecc:	f7ff e99e 	blx	20c <sark_lock_free>
     ed0:	e7d3      	b.n	e7a <sark_xalloc+0xa>
     ed2:	9b01      	ldr	r3, [sp, #4]
     ed4:	6821      	ldr	r1, [r4, #0]
     ed6:	18e3      	adds	r3, r4, r3
     ed8:	429c      	cmp	r4, r3
     eda:	d2f2      	bcs.n	ec2 <sark_xalloc+0x52>
     edc:	4299      	cmp	r1, r3
     ede:	d202      	bcs.n	ee6 <sark_xalloc+0x76>
     ee0:	0022      	movs	r2, r4
     ee2:	6864      	ldr	r4, [r4, #4]
     ee4:	e7eb      	b.n	ebe <sark_xalloc+0x4e>
     ee6:	0018      	movs	r0, r3
     ee8:	3008      	adds	r0, #8
     eea:	4281      	cmp	r1, r0
     eec:	d904      	bls.n	ef8 <sark_xalloc+0x88>
     eee:	6019      	str	r1, [r3, #0]
     ef0:	6861      	ldr	r1, [r4, #4]
     ef2:	6023      	str	r3, [r4, #0]
     ef4:	6059      	str	r1, [r3, #4]
     ef6:	6063      	str	r3, [r4, #4]
     ef8:	6863      	ldr	r3, [r4, #4]
     efa:	2a00      	cmp	r2, #0
     efc:	d017      	beq.n	f2e <RTR_TST2+0x2a>
     efe:	6053      	str	r3, [r2, #4]
     f00:	68f3      	ldr	r3, [r6, #12]
     f02:	9a01      	ldr	r2, [sp, #4]
     f04:	1a99      	subs	r1, r3, r2
     f06:	9b00      	ldr	r3, [sp, #0]
     f08:	60f1      	str	r1, [r6, #12]
     f0a:	2b00      	cmp	r3, #0
     f0c:	d003      	beq.n	f16 <RTR_TST2+0x12>
     f0e:	2106      	movs	r1, #6
     f10:	4660      	mov	r0, ip
     f12:	f7ff e97c 	blx	20c <sark_lock_free>
     f16:	4b08      	ldr	r3, [pc, #32]	; (f38 <RTR_TST2+0x34>)
     f18:	0020      	movs	r0, r4
     f1a:	18eb      	adds	r3, r5, r3
     f1c:	6063      	str	r3, [r4, #4]
     f1e:	3008      	adds	r0, #8
     f20:	2f00      	cmp	r7, #0
     f22:	d003      	beq.n	f2c <RTR_TST2+0x28>
     f24:	4b03      	ldr	r3, [pc, #12]	; (f34 <RTR_TST2+0x30>)
     f26:	00ad      	lsls	r5, r5, #2
     f28:	681b      	ldr	r3, [r3, #0]
     f2a:	50e8      	str	r0, [r5, r3]
     f2c:	bdfe      	pop	{r1, r2, r3, r4, r5, r6, r7, pc}
     f2e:	6033      	str	r3, [r6, #0]
     f30:	e7e6      	b.n	f00 <RTR_TST1>
     f32:	46c0      	nop			; (mov r8, r8)
     f34:	e5007fdc 	.word	0xe5007fdc
     f38:	ffff0000 	.word	0xffff0000

00000f3c <sark_alloc>:
     f3c:	4341      	muls	r1, r0
     f3e:	4804      	ldr	r0, [pc, #16]	; (f50 <sark_alloc+0x14>)
     f40:	2300      	movs	r3, #0
     f42:	b510      	push	{r4, lr}
     f44:	001a      	movs	r2, r3
     f46:	6980      	ldr	r0, [r0, #24]
     f48:	f7ff ff92 	bl	e70 <sark_xalloc>
     f4c:	bd10      	pop	{r4, pc}
     f4e:	46c0      	nop			; (mov r8, r8)
     f50:	00400374 	.word	0x00400374

00000f54 <sark_heap_init>:
     f54:	0003      	movs	r3, r0
     f56:	3908      	subs	r1, #8
     f58:	3310      	adds	r3, #16
     f5a:	6043      	str	r3, [r0, #4]
     f5c:	6003      	str	r3, [r0, #0]
     f5e:	1acb      	subs	r3, r1, r3
     f60:	3b08      	subs	r3, #8
     f62:	60c3      	str	r3, [r0, #12]
     f64:	2300      	movs	r3, #0
     f66:	6101      	str	r1, [r0, #16]
     f68:	6081      	str	r1, [r0, #8]
     f6a:	600b      	str	r3, [r1, #0]
     f6c:	6143      	str	r3, [r0, #20]
     f6e:	604b      	str	r3, [r1, #4]
     f70:	4770      	bx	lr
	...

00000f74 <io_buf_init>:
     f74:	b570      	push	{r4, r5, r6, lr}
     f76:	4d0c      	ldr	r5, [pc, #48]	; (fa8 <io_buf_init+0x34>)
     f78:	480c      	ldr	r0, [pc, #48]	; (fac <io_buf_init+0x38>)
     f7a:	6d29      	ldr	r1, [r5, #80]	; 0x50
     f7c:	2301      	movs	r3, #1
     f7e:	3110      	adds	r1, #16
     f80:	2200      	movs	r2, #0
     f82:	6800      	ldr	r0, [r0, #0]
     f84:	f7ff ff74 	bl	e70 <sark_xalloc>
     f88:	1e04      	subs	r4, r0, #0
     f8a:	d102      	bne.n	f92 <io_buf_init+0x1e>
     f8c:	200e      	movs	r0, #14
     f8e:	f7ff e8ce 	blx	12c <rt_error>
     f92:	69eb      	ldr	r3, [r5, #28]
     f94:	6063      	str	r3, [r4, #4]
     f96:	4a06      	ldr	r2, [pc, #24]	; (fb0 <io_buf_init+0x3c>)
     f98:	8b2b      	ldrh	r3, [r5, #24]
     f9a:	60a3      	str	r3, [r4, #8]
     f9c:	2300      	movs	r3, #0
     f9e:	0020      	movs	r0, r4
     fa0:	6023      	str	r3, [r4, #0]
     fa2:	6013      	str	r3, [r2, #0]
     fa4:	60e3      	str	r3, [r4, #12]
     fa6:	bd70      	pop	{r4, r5, r6, pc}
     fa8:	e5007f00 	.word	0xe5007f00
     fac:	e5007fd0 	.word	0xe5007fd0
     fb0:	0040000c 	.word	0x0040000c

00000fb4 <io_put_char>:
     fb4:	b570      	push	{r4, r5, r6, lr}
     fb6:	000d      	movs	r5, r1
     fb8:	2803      	cmp	r0, #3
     fba:	d907      	bls.n	fcc <io_put_char+0x18>
     fbc:	4932      	ldr	r1, [pc, #200]	; (1088 <SV_SIZE+0x88>)
     fbe:	680a      	ldr	r2, [r1, #0]
     fc0:	1c53      	adds	r3, r2, #1
     fc2:	5485      	strb	r5, [r0, r2]
     fc4:	2200      	movs	r2, #0
     fc6:	600b      	str	r3, [r1, #0]
     fc8:	54c2      	strb	r2, [r0, r3]
     fca:	bd70      	pop	{r4, r5, r6, pc}
     fcc:	2800      	cmp	r0, #0
     fce:	d136      	bne.n	103e <SV_SIZE+0x3e>
     fd0:	4e2e      	ldr	r6, [pc, #184]	; (108c <SV_SIZE+0x8c>)
     fd2:	6833      	ldr	r3, [r6, #0]
     fd4:	2b00      	cmp	r3, #0
     fd6:	d11c      	bne.n	1012 <SV_SIZE+0x12>
     fd8:	2192      	movs	r1, #146	; 0x92
     fda:	0049      	lsls	r1, r1, #1
     fdc:	3001      	adds	r0, #1
     fde:	f7ff ffad 	bl	f3c <sark_alloc>
     fe2:	1e04      	subs	r4, r0, #0
     fe4:	d102      	bne.n	fec <io_put_char+0x38>
     fe6:	200e      	movs	r0, #14
     fe8:	f7ff e8a0 	blx	12c <rt_error>
     fec:	2307      	movs	r3, #7
     fee:	7223      	strb	r3, [r4, #8]
     ff0:	2300      	movs	r3, #0
     ff2:	7263      	strb	r3, [r4, #9]
     ff4:	33ff      	adds	r3, #255	; 0xff
     ff6:	72a3      	strb	r3, [r4, #10]
     ff8:	4b25      	ldr	r3, [pc, #148]	; (1090 <SV_SIZE+0x90>)
     ffa:	889a      	ldrh	r2, [r3, #4]
     ffc:	81a2      	strh	r2, [r4, #12]
     ffe:	4a25      	ldr	r2, [pc, #148]	; (1094 <SV_SIZE+0x94>)
    1000:	6812      	ldr	r2, [r2, #0]
    1002:	72e2      	strb	r2, [r4, #11]
    1004:	881b      	ldrh	r3, [r3, #0]
    1006:	81e3      	strh	r3, [r4, #14]
    1008:	2340      	movs	r3, #64	; 0x40
    100a:	8223      	strh	r3, [r4, #16]
    100c:	3b34      	subs	r3, #52	; 0x34
    100e:	80a3      	strh	r3, [r4, #4]
    1010:	6034      	str	r4, [r6, #0]
    1012:	6830      	ldr	r0, [r6, #0]
    1014:	8883      	ldrh	r3, [r0, #4]
    1016:	1c5a      	adds	r2, r3, #1
    1018:	18c3      	adds	r3, r0, r3
    101a:	8082      	strh	r2, [r0, #4]
    101c:	721d      	strb	r5, [r3, #8]
    101e:	2d0a      	cmp	r5, #10
    1020:	d006      	beq.n	1030 <SV_SIZE+0x30>
    1022:	2d00      	cmp	r5, #0
    1024:	d004      	beq.n	1030 <SV_SIZE+0x30>
    1026:	8882      	ldrh	r2, [r0, #4]
    1028:	2386      	movs	r3, #134	; 0x86
    102a:	005b      	lsls	r3, r3, #1
    102c:	429a      	cmp	r2, r3
    102e:	d1cc      	bne.n	fca <io_put_char+0x16>
    1030:	210a      	movs	r1, #10
    1032:	f7ff fcb9 	bl	9a8 <sark_msg_send>
    1036:	6833      	ldr	r3, [r6, #0]
    1038:	220c      	movs	r2, #12
    103a:	809a      	strh	r2, [r3, #4]
    103c:	e7c5      	b.n	fca <io_put_char+0x16>
    103e:	2802      	cmp	r0, #2
    1040:	d1c3      	bne.n	fca <io_put_char+0x16>
    1042:	4c15      	ldr	r4, [pc, #84]	; (1098 <SV_SIZE+0x98>)
    1044:	6823      	ldr	r3, [r4, #0]
    1046:	2b00      	cmp	r3, #0
    1048:	d105      	bne.n	1056 <SV_SIZE+0x56>
    104a:	4b12      	ldr	r3, [pc, #72]	; (1094 <SV_SIZE+0x94>)
    104c:	69de      	ldr	r6, [r3, #28]
    104e:	f7ff ff91 	bl	f74 <io_buf_init>
    1052:	65b0      	str	r0, [r6, #88]	; 0x58
    1054:	6020      	str	r0, [r4, #0]
    1056:	4911      	ldr	r1, [pc, #68]	; (109c <SV_SIZE+0x9c>)
    1058:	6826      	ldr	r6, [r4, #0]
    105a:	680a      	ldr	r2, [r1, #0]
    105c:	1c53      	adds	r3, r2, #1
    105e:	18b2      	adds	r2, r6, r2
    1060:	7415      	strb	r5, [r2, #16]
    1062:	4a0b      	ldr	r2, [pc, #44]	; (1090 <SV_SIZE+0x90>)
    1064:	600b      	str	r3, [r1, #0]
    1066:	6d12      	ldr	r2, [r2, #80]	; 0x50
    1068:	4293      	cmp	r3, r2
    106a:	d107      	bne.n	107c <SV_SIZE+0x7c>
    106c:	60f3      	str	r3, [r6, #12]
    106e:	f7ff ff81 	bl	f74 <io_buf_init>
    1072:	6823      	ldr	r3, [r4, #0]
    1074:	6030      	str	r0, [r6, #0]
    1076:	681b      	ldr	r3, [r3, #0]
    1078:	6023      	str	r3, [r4, #0]
    107a:	e7a6      	b.n	fca <io_put_char+0x16>
    107c:	2d0a      	cmp	r5, #10
    107e:	d001      	beq.n	1084 <SV_SIZE+0x84>
    1080:	2d00      	cmp	r5, #0
    1082:	d1a2      	bne.n	fca <io_put_char+0x16>
    1084:	60f3      	str	r3, [r6, #12]
    1086:	e7a0      	b.n	fca <io_put_char+0x16>
    1088:	00400018 	.word	0x00400018
    108c:	00400014 	.word	0x00400014
    1090:	e5007f00 	.word	0xe5007f00
    1094:	00400374 	.word	0x00400374
    1098:	00400010 	.word	0x00400010
    109c:	0040000c 	.word	0x0040000c

000010a0 <io_put_fixed>:
    10a0:	b5f0      	push	{r4, r5, r6, r7, lr}
    10a2:	b08d      	sub	sp, #52	; 0x34
    10a4:	9001      	str	r0, [sp, #4]
    10a6:	0017      	movs	r7, r2
    10a8:	2b0c      	cmp	r3, #12
    10aa:	d900      	bls.n	10ae <io_put_fixed+0xe>
    10ac:	230c      	movs	r3, #12
    10ae:	aa05      	add	r2, sp, #20
    10b0:	4694      	mov	ip, r2
    10b2:	0008      	movs	r0, r1
    10b4:	2400      	movs	r4, #0
    10b6:	449c      	add	ip, r3
    10b8:	0400      	lsls	r0, r0, #16
    10ba:	0c00      	lsrs	r0, r0, #16
    10bc:	220a      	movs	r2, #10
    10be:	4342      	muls	r2, r0
    10c0:	0010      	movs	r0, r2
    10c2:	429c      	cmp	r4, r3
    10c4:	d11f      	bne.n	1106 <io_put_fixed+0x66>
    10c6:	0c10      	lsrs	r0, r2, #16
    10c8:	2204      	movs	r2, #4
    10ca:	4282      	cmp	r2, r0
    10cc:	4192      	sbcs	r2, r2
    10ce:	2530      	movs	r5, #48	; 0x30
    10d0:	4252      	negs	r2, r2
    10d2:	2000      	movs	r0, #0
    10d4:	ae05      	add	r6, sp, #20
    10d6:	46ac      	mov	ip, r5
    10d8:	2a00      	cmp	r2, #0
    10da:	d001      	beq.n	10e0 <io_put_fixed+0x40>
    10dc:	4283      	cmp	r3, r0
    10de:	d119      	bne.n	1114 <io_put_fixed+0x74>
    10e0:	2b00      	cmp	r3, #0
    10e2:	d002      	beq.n	10ea <io_put_fixed+0x4a>
    10e4:	232e      	movs	r3, #46	; 0x2e
    10e6:	5533      	strb	r3, [r6, r4]
    10e8:	3401      	adds	r4, #1
    10ea:	0c09      	lsrs	r1, r1, #16
    10ec:	1851      	adds	r1, r2, r1
    10ee:	a803      	add	r0, sp, #12
    10f0:	f7ff e8ee 	blx	2d0 <sark_div10>
    10f4:	9b04      	ldr	r3, [sp, #16]
    10f6:	9903      	ldr	r1, [sp, #12]
    10f8:	3330      	adds	r3, #48	; 0x30
    10fa:	1c65      	adds	r5, r4, #1
    10fc:	5533      	strb	r3, [r6, r4]
    10fe:	2900      	cmp	r1, #0
    1100:	d013      	beq.n	112a <io_put_fixed+0x8a>
    1102:	002c      	movs	r4, r5
    1104:	e7f3      	b.n	10ee <io_put_fixed+0x4e>
    1106:	3401      	adds	r4, #1
    1108:	0c02      	lsrs	r2, r0, #16
    110a:	4266      	negs	r6, r4
    110c:	3230      	adds	r2, #48	; 0x30
    110e:	4665      	mov	r5, ip
    1110:	55aa      	strb	r2, [r5, r6]
    1112:	e7d1      	b.n	10b8 <io_put_fixed+0x18>
    1114:	5c35      	ldrb	r5, [r6, r0]
    1116:	2d38      	cmp	r5, #56	; 0x38
    1118:	d903      	bls.n	1122 <io_put_fixed+0x82>
    111a:	4665      	mov	r5, ip
    111c:	5435      	strb	r5, [r6, r0]
    111e:	3001      	adds	r0, #1
    1120:	e7da      	b.n	10d8 <io_put_fixed+0x38>
    1122:	3501      	adds	r5, #1
    1124:	5435      	strb	r5, [r6, r0]
    1126:	2200      	movs	r2, #0
    1128:	e7f9      	b.n	111e <io_put_fixed+0x7e>
    112a:	9b13      	ldr	r3, [sp, #76]	; 0x4c
    112c:	2b00      	cmp	r3, #0
    112e:	d002      	beq.n	1136 <io_put_fixed+0x96>
    1130:	232d      	movs	r3, #45	; 0x2d
    1132:	5573      	strb	r3, [r6, r5]
    1134:	1ca5      	adds	r5, r4, #2
    1136:	1c6b      	adds	r3, r5, #1
    1138:	42bb      	cmp	r3, r7
    113a:	d308      	bcc.n	114e <io_put_fixed+0xae>
    113c:	3d01      	subs	r5, #1
    113e:	5d71      	ldrb	r1, [r6, r5]
    1140:	9801      	ldr	r0, [sp, #4]
    1142:	f7ff ff37 	bl	fb4 <io_put_char>
    1146:	2d00      	cmp	r5, #0
    1148:	d1f8      	bne.n	113c <io_put_fixed+0x9c>
    114a:	b00d      	add	sp, #52	; 0x34
    114c:	bdf0      	pop	{r4, r5, r6, r7, pc}
    114e:	9912      	ldr	r1, [sp, #72]	; 0x48
    1150:	9801      	ldr	r0, [sp, #4]
    1152:	f7ff ff2f 	bl	fb4 <io_put_char>
    1156:	3f01      	subs	r7, #1
    1158:	e7ed      	b.n	1136 <io_put_fixed+0x96>
	...

0000115c <io_printf>:
    115c:	b40e      	push	{r1, r2, r3}
    115e:	b5f0      	push	{r4, r5, r6, r7, lr}
    1160:	0004      	movs	r4, r0
    1162:	b08c      	sub	sp, #48	; 0x30
    1164:	2803      	cmp	r0, #3
    1166:	d051      	beq.n	120c <io_printf+0xb0>
    1168:	d903      	bls.n	1172 <io_printf+0x16>
    116a:	4a9d      	ldr	r2, [pc, #628]	; (13e0 <io_printf+0x284>)
    116c:	2300      	movs	r3, #0
    116e:	7003      	strb	r3, [r0, #0]
    1170:	6013      	str	r3, [r2, #0]
    1172:	ab12      	add	r3, sp, #72	; 0x48
    1174:	9305      	str	r3, [sp, #20]
    1176:	9b11      	ldr	r3, [sp, #68]	; 0x44
    1178:	7819      	ldrb	r1, [r3, #0]
    117a:	2900      	cmp	r1, #0
    117c:	d046      	beq.n	120c <io_printf+0xb0>
    117e:	2925      	cmp	r1, #37	; 0x25
    1180:	d005      	beq.n	118e <io_printf+0x32>
    1182:	3301      	adds	r3, #1
    1184:	9311      	str	r3, [sp, #68]	; 0x44
    1186:	0020      	movs	r0, r4
    1188:	f7ff ff14 	bl	fb4 <io_put_char>
    118c:	e7f3      	b.n	1176 <io_printf+0x1a>
    118e:	9b11      	ldr	r3, [sp, #68]	; 0x44
    1190:	7859      	ldrb	r1, [r3, #1]
    1192:	1c9a      	adds	r2, r3, #2
    1194:	2900      	cmp	r1, #0
    1196:	d039      	beq.n	120c <io_printf+0xb0>
    1198:	2320      	movs	r3, #32
    119a:	9303      	str	r3, [sp, #12]
    119c:	2930      	cmp	r1, #48	; 0x30
    119e:	d100      	bne.n	11a2 <io_printf+0x46>
    11a0:	9103      	str	r1, [sp, #12]
    11a2:	2700      	movs	r7, #0
    11a4:	000b      	movs	r3, r1
    11a6:	3b30      	subs	r3, #48	; 0x30
    11a8:	9211      	str	r2, [sp, #68]	; 0x44
    11aa:	2b09      	cmp	r3, #9
    11ac:	d924      	bls.n	11f8 <io_printf+0x9c>
    11ae:	2306      	movs	r3, #6
    11b0:	292e      	cmp	r1, #46	; 0x2e
    11b2:	d109      	bne.n	11c8 <io_printf+0x6c>
    11b4:	7811      	ldrb	r1, [r2, #0]
    11b6:	2300      	movs	r3, #0
    11b8:	3201      	adds	r2, #1
    11ba:	0008      	movs	r0, r1
    11bc:	3830      	subs	r0, #48	; 0x30
    11be:	9211      	str	r2, [sp, #68]	; 0x44
    11c0:	2809      	cmp	r0, #9
    11c2:	d928      	bls.n	1216 <io_printf+0xba>
    11c4:	2900      	cmp	r1, #0
    11c6:	d021      	beq.n	120c <io_printf+0xb0>
    11c8:	296b      	cmp	r1, #107	; 0x6b
    11ca:	d100      	bne.n	11ce <io_printf+0x72>
    11cc:	e0d2      	b.n	1374 <io_printf+0x218>
    11ce:	d82e      	bhi.n	122e <io_printf+0xd2>
    11d0:	2963      	cmp	r1, #99	; 0x63
    11d2:	d068      	beq.n	12a6 <io_printf+0x14a>
    11d4:	d826      	bhi.n	1224 <io_printf+0xc8>
    11d6:	294b      	cmp	r1, #75	; 0x4b
    11d8:	d001      	beq.n	11de <io_printf+0x82>
    11da:	2952      	cmp	r1, #82	; 0x52
    11dc:	d1d3      	bne.n	1186 <io_printf+0x2a>
    11de:	9905      	ldr	r1, [sp, #20]
    11e0:	1d0a      	adds	r2, r1, #4
    11e2:	9205      	str	r2, [sp, #20]
    11e4:	2200      	movs	r2, #0
    11e6:	9201      	str	r2, [sp, #4]
    11e8:	9a03      	ldr	r2, [sp, #12]
    11ea:	9200      	str	r2, [sp, #0]
    11ec:	6809      	ldr	r1, [r1, #0]
    11ee:	003a      	movs	r2, r7
    11f0:	0020      	movs	r0, r4
    11f2:	f7ff ff55 	bl	10a0 <io_put_fixed>
    11f6:	e7be      	b.n	1176 <io_printf+0x1a>
    11f8:	230a      	movs	r3, #10
    11fa:	437b      	muls	r3, r7
    11fc:	3201      	adds	r2, #1
    11fe:	1859      	adds	r1, r3, r1
    1200:	3930      	subs	r1, #48	; 0x30
    1202:	1e53      	subs	r3, r2, #1
    1204:	000f      	movs	r7, r1
    1206:	7819      	ldrb	r1, [r3, #0]
    1208:	2900      	cmp	r1, #0
    120a:	d1cb      	bne.n	11a4 <io_printf+0x48>
    120c:	b00c      	add	sp, #48	; 0x30
    120e:	bcf0      	pop	{r4, r5, r6, r7}
    1210:	bc08      	pop	{r3}
    1212:	b003      	add	sp, #12
    1214:	4718      	bx	r3
    1216:	200a      	movs	r0, #10
    1218:	4358      	muls	r0, r3
    121a:	1843      	adds	r3, r0, r1
    121c:	3b30      	subs	r3, #48	; 0x30
    121e:	7811      	ldrb	r1, [r2, #0]
    1220:	3201      	adds	r2, #1
    1222:	e7ca      	b.n	11ba <io_printf+0x5e>
    1224:	2964      	cmp	r1, #100	; 0x64
    1226:	d049      	beq.n	12bc <io_printf+0x160>
    1228:	2966      	cmp	r1, #102	; 0x66
    122a:	d0d8      	beq.n	11de <io_printf+0x82>
    122c:	e7ab      	b.n	1186 <io_printf+0x2a>
    122e:	2975      	cmp	r1, #117	; 0x75
    1230:	d079      	beq.n	1326 <io_printf+0x1ca>
    1232:	d81a      	bhi.n	126a <io_printf+0x10e>
    1234:	2972      	cmp	r1, #114	; 0x72
    1236:	d100      	bne.n	123a <io_printf+0xde>
    1238:	e09c      	b.n	1374 <io_printf+0x218>
    123a:	2973      	cmp	r1, #115	; 0x73
    123c:	d1a3      	bne.n	1186 <io_printf+0x2a>
    123e:	9b05      	ldr	r3, [sp, #20]
    1240:	681d      	ldr	r5, [r3, #0]
    1242:	1d1a      	adds	r2, r3, #4
    1244:	002b      	movs	r3, r5
    1246:	9205      	str	r2, [sp, #20]
    1248:	1b5e      	subs	r6, r3, r5
    124a:	3301      	adds	r3, #1
    124c:	1e5a      	subs	r2, r3, #1
    124e:	7812      	ldrb	r2, [r2, #0]
    1250:	2a00      	cmp	r2, #0
    1252:	d1f9      	bne.n	1248 <io_printf+0xec>
    1254:	42b7      	cmp	r7, r6
    1256:	dc2b      	bgt.n	12b0 <io_printf+0x154>
    1258:	7829      	ldrb	r1, [r5, #0]
    125a:	2900      	cmp	r1, #0
    125c:	d100      	bne.n	1260 <io_printf+0x104>
    125e:	e78a      	b.n	1176 <io_printf+0x1a>
    1260:	0020      	movs	r0, r4
    1262:	3501      	adds	r5, #1
    1264:	f7ff fea6 	bl	fb4 <io_put_char>
    1268:	e7f6      	b.n	1258 <io_printf+0xfc>
    126a:	2978      	cmp	r1, #120	; 0x78
    126c:	d100      	bne.n	1270 <io_printf+0x114>
    126e:	e08f      	b.n	1390 <io_printf+0x234>
    1270:	297a      	cmp	r1, #122	; 0x7a
    1272:	d000      	beq.n	1276 <io_printf+0x11a>
    1274:	e787      	b.n	1186 <io_printf+0x2a>
    1276:	9b05      	ldr	r3, [sp, #20]
    1278:	1e7e      	subs	r6, r7, #1
    127a:	1d1a      	adds	r2, r3, #4
    127c:	681b      	ldr	r3, [r3, #0]
    127e:	9303      	str	r3, [sp, #12]
    1280:	4b58      	ldr	r3, [pc, #352]	; (13e4 <io_printf+0x288>)
    1282:	9205      	str	r2, [sp, #20]
    1284:	18fd      	adds	r5, r7, r3
    1286:	00ad      	lsls	r5, r5, #2
    1288:	270f      	movs	r7, #15
    128a:	2e00      	cmp	r6, #0
    128c:	da00      	bge.n	1290 <io_printf+0x134>
    128e:	e772      	b.n	1176 <io_printf+0x1a>
    1290:	9b03      	ldr	r3, [sp, #12]
    1292:	4a55      	ldr	r2, [pc, #340]	; (13e8 <io_printf+0x28c>)
    1294:	40eb      	lsrs	r3, r5
    1296:	403b      	ands	r3, r7
    1298:	5cd1      	ldrb	r1, [r2, r3]
    129a:	0020      	movs	r0, r4
    129c:	f7ff fe8a 	bl	fb4 <io_put_char>
    12a0:	3e01      	subs	r6, #1
    12a2:	3d04      	subs	r5, #4
    12a4:	e7f1      	b.n	128a <io_printf+0x12e>
    12a6:	9b05      	ldr	r3, [sp, #20]
    12a8:	1d1a      	adds	r2, r3, #4
    12aa:	9205      	str	r2, [sp, #20]
    12ac:	6819      	ldr	r1, [r3, #0]
    12ae:	e76a      	b.n	1186 <io_printf+0x2a>
    12b0:	2120      	movs	r1, #32
    12b2:	0020      	movs	r0, r4
    12b4:	f7ff fe7e 	bl	fb4 <io_put_char>
    12b8:	3f01      	subs	r7, #1
    12ba:	e7cb      	b.n	1254 <io_printf+0xf8>
    12bc:	9b05      	ldr	r3, [sp, #20]
    12be:	6819      	ldr	r1, [r3, #0]
    12c0:	1d1a      	adds	r2, r3, #4
    12c2:	2300      	movs	r3, #0
    12c4:	9205      	str	r2, [sp, #20]
    12c6:	9303      	str	r3, [sp, #12]
    12c8:	4299      	cmp	r1, r3
    12ca:	da02      	bge.n	12d2 <io_printf+0x176>
    12cc:	332d      	adds	r3, #45	; 0x2d
    12ce:	4249      	negs	r1, r1
    12d0:	9303      	str	r3, [sp, #12]
    12d2:	2500      	movs	r5, #0
    12d4:	a806      	add	r0, sp, #24
    12d6:	f7fe effc 	blx	2d0 <sark_div10>
    12da:	9b07      	ldr	r3, [sp, #28]
    12dc:	3501      	adds	r5, #1
    12de:	9906      	ldr	r1, [sp, #24]
    12e0:	ae08      	add	r6, sp, #32
    12e2:	1e6a      	subs	r2, r5, #1
    12e4:	3330      	adds	r3, #48	; 0x30
    12e6:	54b3      	strb	r3, [r6, r2]
    12e8:	2900      	cmp	r1, #0
    12ea:	d1f3      	bne.n	12d4 <io_printf+0x178>
    12ec:	3d01      	subs	r5, #1
    12ee:	5d73      	ldrb	r3, [r6, r5]
    12f0:	2b30      	cmp	r3, #48	; 0x30
    12f2:	d101      	bne.n	12f8 <io_printf+0x19c>
    12f4:	2d00      	cmp	r5, #0
    12f6:	d1f9      	bne.n	12ec <io_printf+0x190>
    12f8:	9b03      	ldr	r3, [sp, #12]
    12fa:	2b00      	cmp	r3, #0
    12fc:	d003      	beq.n	1306 <io_printf+0x1aa>
    12fe:	466b      	mov	r3, sp
    1300:	3501      	adds	r5, #1
    1302:	7b1b      	ldrb	r3, [r3, #12]
    1304:	5573      	strb	r3, [r6, r5]
    1306:	1c6b      	adds	r3, r5, #1
    1308:	429f      	cmp	r7, r3
    130a:	d806      	bhi.n	131a <io_printf+0x1be>
    130c:	5d71      	ldrb	r1, [r6, r5]
    130e:	0020      	movs	r0, r4
    1310:	f7ff fe50 	bl	fb4 <io_put_char>
    1314:	3d01      	subs	r5, #1
    1316:	d2f9      	bcs.n	130c <io_printf+0x1b0>
    1318:	e72d      	b.n	1176 <io_printf+0x1a>
    131a:	2120      	movs	r1, #32
    131c:	0020      	movs	r0, r4
    131e:	f7ff fe49 	bl	fb4 <io_put_char>
    1322:	3f01      	subs	r7, #1
    1324:	e7ef      	b.n	1306 <io_printf+0x1aa>
    1326:	9b05      	ldr	r3, [sp, #20]
    1328:	2500      	movs	r5, #0
    132a:	6819      	ldr	r1, [r3, #0]
    132c:	1d1a      	adds	r2, r3, #4
    132e:	9205      	str	r2, [sp, #20]
    1330:	a806      	add	r0, sp, #24
    1332:	f7fe efce 	blx	2d0 <sark_div10>
    1336:	9b07      	ldr	r3, [sp, #28]
    1338:	3501      	adds	r5, #1
    133a:	9906      	ldr	r1, [sp, #24]
    133c:	ae08      	add	r6, sp, #32
    133e:	1e6a      	subs	r2, r5, #1
    1340:	3330      	adds	r3, #48	; 0x30
    1342:	54b3      	strb	r3, [r6, r2]
    1344:	2900      	cmp	r1, #0
    1346:	d1f3      	bne.n	1330 <io_printf+0x1d4>
    1348:	3d01      	subs	r5, #1
    134a:	5d73      	ldrb	r3, [r6, r5]
    134c:	2b30      	cmp	r3, #48	; 0x30
    134e:	d101      	bne.n	1354 <io_printf+0x1f8>
    1350:	2d00      	cmp	r5, #0
    1352:	d1f9      	bne.n	1348 <io_printf+0x1ec>
    1354:	1c6b      	adds	r3, r5, #1
    1356:	42bb      	cmp	r3, r7
    1358:	d306      	bcc.n	1368 <io_printf+0x20c>
    135a:	5d71      	ldrb	r1, [r6, r5]
    135c:	0020      	movs	r0, r4
    135e:	f7ff fe29 	bl	fb4 <io_put_char>
    1362:	3d01      	subs	r5, #1
    1364:	d2f9      	bcs.n	135a <io_printf+0x1fe>
    1366:	e706      	b.n	1176 <io_printf+0x1a>
    1368:	9903      	ldr	r1, [sp, #12]
    136a:	0020      	movs	r0, r4
    136c:	f7ff fe22 	bl	fb4 <io_put_char>
    1370:	3f01      	subs	r7, #1
    1372:	e7ef      	b.n	1354 <io_printf+0x1f8>
    1374:	9a05      	ldr	r2, [sp, #20]
    1376:	1d11      	adds	r1, r2, #4
    1378:	6812      	ldr	r2, [r2, #0]
    137a:	9105      	str	r1, [sp, #20]
    137c:	17d0      	asrs	r0, r2, #31
    137e:	1811      	adds	r1, r2, r0
    1380:	0fd2      	lsrs	r2, r2, #31
    1382:	4041      	eors	r1, r0
    1384:	9201      	str	r2, [sp, #4]
    1386:	9a03      	ldr	r2, [sp, #12]
    1388:	9200      	str	r2, [sp, #0]
    138a:	0049      	lsls	r1, r1, #1
    138c:	003a      	movs	r2, r7
    138e:	e72f      	b.n	11f0 <io_printf+0x94>
    1390:	9b05      	ldr	r3, [sp, #20]
    1392:	4815      	ldr	r0, [pc, #84]	; (13e8 <io_printf+0x28c>)
    1394:	1d1a      	adds	r2, r3, #4
    1396:	9205      	str	r2, [sp, #20]
    1398:	681b      	ldr	r3, [r3, #0]
    139a:	220f      	movs	r2, #15
    139c:	2500      	movs	r5, #0
    139e:	ae08      	add	r6, sp, #32
    13a0:	4694      	mov	ip, r2
    13a2:	4661      	mov	r1, ip
    13a4:	4019      	ands	r1, r3
    13a6:	3501      	adds	r5, #1
    13a8:	1e6a      	subs	r2, r5, #1
    13aa:	5c41      	ldrb	r1, [r0, r1]
    13ac:	54b1      	strb	r1, [r6, r2]
    13ae:	091b      	lsrs	r3, r3, #4
    13b0:	d1f7      	bne.n	13a2 <io_printf+0x246>
    13b2:	3d01      	subs	r5, #1
    13b4:	5d73      	ldrb	r3, [r6, r5]
    13b6:	2b30      	cmp	r3, #48	; 0x30
    13b8:	d101      	bne.n	13be <io_printf+0x262>
    13ba:	2d00      	cmp	r5, #0
    13bc:	d1f9      	bne.n	13b2 <io_printf+0x256>
    13be:	1c6b      	adds	r3, r5, #1
    13c0:	42bb      	cmp	r3, r7
    13c2:	d306      	bcc.n	13d2 <io_printf+0x276>
    13c4:	5d71      	ldrb	r1, [r6, r5]
    13c6:	0020      	movs	r0, r4
    13c8:	f7ff fdf4 	bl	fb4 <io_put_char>
    13cc:	3d01      	subs	r5, #1
    13ce:	d2f9      	bcs.n	13c4 <io_printf+0x268>
    13d0:	e6d1      	b.n	1176 <io_printf+0x1a>
    13d2:	9903      	ldr	r1, [sp, #12]
    13d4:	0020      	movs	r0, r4
    13d6:	f7ff fded 	bl	fb4 <io_put_char>
    13da:	3f01      	subs	r7, #1
    13dc:	e7ef      	b.n	13be <io_printf+0x262>
    13de:	46c0      	nop			; (mov r8, r8)
    13e0:	00400018 	.word	0x00400018
    13e4:	3fffffff 	.word	0x3fffffff
    13e8:	00002252 	.word	0x00002252

000013ec <configure_dma_controller>:
    13ec:	4b06      	ldr	r3, [pc, #24]	; (1408 <configure_dma_controller+0x1c>)
    13ee:	223f      	movs	r2, #63	; 0x3f
    13f0:	601a      	str	r2, [r3, #0]
    13f2:	3a32      	subs	r2, #50	; 0x32
    13f4:	601a      	str	r2, [r3, #0]
    13f6:	4b05      	ldr	r3, [pc, #20]	; (140c <configure_dma_controller+0x20>)
    13f8:	22c0      	movs	r2, #192	; 0xc0
    13fa:	0112      	lsls	r2, r2, #4
    13fc:	601a      	str	r2, [r3, #0]
    13fe:	4b04      	ldr	r3, [pc, #16]	; (1410 <configure_dma_controller+0x24>)
    1400:	2203      	movs	r2, #3
    1402:	601a      	str	r2, [r3, #0]
    1404:	4770      	bx	lr
    1406:	46c0      	nop			; (mov r8, r8)
    1408:	40000010 	.word	0x40000010
    140c:	40000018 	.word	0x40000018
    1410:	40000028 	.word	0x40000028

00001414 <configure_timer1>:
    1414:	4b08      	ldr	r3, [pc, #32]	; (1438 <configure_timer1+0x24>)
    1416:	2200      	movs	r2, #0
    1418:	601a      	str	r2, [r3, #0]
    141a:	4b08      	ldr	r3, [pc, #32]	; (143c <configure_timer1+0x28>)
    141c:	3201      	adds	r2, #1
    141e:	601a      	str	r2, [r3, #0]
    1420:	4b07      	ldr	r3, [pc, #28]	; (1440 <configure_timer1+0x2c>)
    1422:	1841      	adds	r1, r0, r1
    1424:	8c9b      	ldrh	r3, [r3, #36]	; 0x24
    1426:	2284      	movs	r2, #132	; 0x84
    1428:	4359      	muls	r1, r3
    142a:	4358      	muls	r0, r3
    142c:	4b05      	ldr	r3, [pc, #20]	; (1444 <configure_timer1+0x30>)
    142e:	0592      	lsls	r2, r2, #22
    1430:	6011      	str	r1, [r2, #0]
    1432:	6018      	str	r0, [r3, #0]
    1434:	4770      	bx	lr
    1436:	46c0      	nop			; (mov r8, r8)
    1438:	21000008 	.word	0x21000008
    143c:	2100000c 	.word	0x2100000c
    1440:	e5007f00 	.word	0xe5007f00
    1444:	21000018 	.word	0x21000018

00001448 <configure_vic>:
    1448:	4b36      	ldr	r3, [pc, #216]	; (1524 <configure_vic+0xdc>)
    144a:	4a37      	ldr	r2, [pc, #220]	; (1528 <configure_vic+0xe0>)
    144c:	b530      	push	{r4, r5, lr}
    144e:	601a      	str	r2, [r3, #0]
    1450:	4a36      	ldr	r2, [pc, #216]	; (152c <configure_vic+0xe4>)
    1452:	2320      	movs	r3, #32
    1454:	69d9      	ldr	r1, [r3, #28]
    1456:	6011      	str	r1, [r2, #0]
    1458:	4935      	ldr	r1, [pc, #212]	; (1530 <configure_vic+0xe8>)
    145a:	4a36      	ldr	r2, [pc, #216]	; (1534 <configure_vic+0xec>)
    145c:	0004      	movs	r4, r0
    145e:	6808      	ldr	r0, [r1, #0]
    1460:	6010      	str	r0, [r2, #0]
    1462:	4a35      	ldr	r2, [pc, #212]	; (1538 <configure_vic+0xf0>)
    1464:	4835      	ldr	r0, [pc, #212]	; (153c <configure_vic+0xf4>)
    1466:	6815      	ldr	r5, [r2, #0]
    1468:	6005      	str	r5, [r0, #0]
    146a:	4835      	ldr	r0, [pc, #212]	; (1540 <configure_vic+0xf8>)
    146c:	6800      	ldr	r0, [r0, #0]
    146e:	2807      	cmp	r0, #7
    1470:	d854      	bhi.n	151c <configure_vic+0xd4>
    1472:	f7fe ff77 	bl	364 <__gnu_thumb1_case_uqi>
    1476:	4604      	.short	0x4604
    1478:	044f534b 	.word	0x044f534b
    147c:	4141      	.short	0x4141
    147e:	4831      	ldr	r0, [pc, #196]	; (1544 <configure_vic+0xfc>)
    1480:	61d8      	str	r0, [r3, #28]
    1482:	2080      	movs	r0, #128	; 0x80
    1484:	0440      	lsls	r0, r0, #17
    1486:	2359      	movs	r3, #89	; 0x59
    1488:	781b      	ldrb	r3, [r3, #0]
    148a:	4d2f      	ldr	r5, [pc, #188]	; (1548 <configure_vic+0x100>)
    148c:	009b      	lsls	r3, r3, #2
    148e:	195b      	adds	r3, r3, r5
    1490:	2500      	movs	r5, #0
    1492:	601d      	str	r5, [r3, #0]
    1494:	4b2d      	ldr	r3, [pc, #180]	; (154c <configure_vic+0x104>)
    1496:	4d2e      	ldr	r5, [pc, #184]	; (1550 <configure_vic+0x108>)
    1498:	601d      	str	r5, [r3, #0]
    149a:	4b2b      	ldr	r3, [pc, #172]	; (1548 <configure_vic+0x100>)
    149c:	2532      	movs	r5, #50	; 0x32
    149e:	601d      	str	r5, [r3, #0]
    14a0:	4b2c      	ldr	r3, [pc, #176]	; (1554 <configure_vic+0x10c>)
    14a2:	4d2d      	ldr	r5, [pc, #180]	; (1558 <configure_vic+0x110>)
    14a4:	601d      	str	r5, [r3, #0]
    14a6:	4b2d      	ldr	r3, [pc, #180]	; (155c <configure_vic+0x114>)
    14a8:	2538      	movs	r5, #56	; 0x38
    14aa:	601d      	str	r5, [r3, #0]
    14ac:	4b2c      	ldr	r3, [pc, #176]	; (1560 <configure_vic+0x118>)
    14ae:	4d2d      	ldr	r5, [pc, #180]	; (1564 <configure_vic+0x11c>)
    14b0:	601d      	str	r5, [r3, #0]
    14b2:	4b2d      	ldr	r3, [pc, #180]	; (1568 <configure_vic+0x120>)
    14b4:	253b      	movs	r5, #59	; 0x3b
    14b6:	601d      	str	r5, [r3, #0]
    14b8:	4b2c      	ldr	r3, [pc, #176]	; (156c <configure_vic+0x124>)
    14ba:	4d2d      	ldr	r5, [pc, #180]	; (1570 <configure_vic+0x128>)
    14bc:	601d      	str	r5, [r3, #0]
    14be:	4b2d      	ldr	r3, [pc, #180]	; (1574 <configure_vic+0x12c>)
    14c0:	252c      	movs	r5, #44	; 0x2c
    14c2:	601d      	str	r5, [r3, #0]
    14c4:	4b2c      	ldr	r3, [pc, #176]	; (1578 <configure_vic+0x130>)
    14c6:	4d2d      	ldr	r5, [pc, #180]	; (157c <configure_vic+0x134>)
    14c8:	601d      	str	r5, [r3, #0]
    14ca:	4b2d      	ldr	r3, [pc, #180]	; (1580 <configure_vic+0x138>)
    14cc:	2524      	movs	r5, #36	; 0x24
    14ce:	601d      	str	r5, [r3, #0]
    14d0:	4b2c      	ldr	r3, [pc, #176]	; (1584 <configure_vic+0x13c>)
    14d2:	4d2d      	ldr	r5, [pc, #180]	; (1588 <configure_vic+0x140>)
    14d4:	601d      	str	r5, [r3, #0]
    14d6:	4b2d      	ldr	r3, [pc, #180]	; (158c <configure_vic+0x144>)
    14d8:	252b      	movs	r5, #43	; 0x2b
    14da:	601d      	str	r5, [r3, #0]
    14dc:	4b2c      	ldr	r3, [pc, #176]	; (1590 <configure_vic+0x148>)
    14de:	4d2d      	ldr	r5, [pc, #180]	; (1594 <configure_vic+0x14c>)
    14e0:	601d      	str	r5, [r3, #0]
    14e2:	4b2d      	ldr	r3, [pc, #180]	; (1598 <configure_vic+0x150>)
    14e4:	2521      	movs	r5, #33	; 0x21
    14e6:	601d      	str	r5, [r3, #0]
    14e8:	6008      	str	r0, [r1, #0]
    14ea:	2c00      	cmp	r4, #0
    14ec:	d118      	bne.n	1520 <configure_vic+0xd8>
    14ee:	4b2b      	ldr	r3, [pc, #172]	; (159c <configure_vic+0x154>)
    14f0:	492b      	ldr	r1, [pc, #172]	; (15a0 <configure_vic+0x158>)
    14f2:	400b      	ands	r3, r1
    14f4:	6013      	str	r3, [r2, #0]
    14f6:	bd30      	pop	{r4, r5, pc}
    14f8:	482a      	ldr	r0, [pc, #168]	; (15a4 <configure_vic+0x15c>)
    14fa:	61d8      	str	r0, [r3, #28]
    14fc:	2080      	movs	r0, #128	; 0x80
    14fe:	0500      	lsls	r0, r0, #20
    1500:	e7c1      	b.n	1486 <configure_vic+0x3e>
    1502:	4829      	ldr	r0, [pc, #164]	; (15a8 <configure_vic+0x160>)
    1504:	61d8      	str	r0, [r3, #28]
    1506:	2080      	movs	r0, #128	; 0x80
    1508:	0140      	lsls	r0, r0, #5
    150a:	e7bc      	b.n	1486 <configure_vic+0x3e>
    150c:	4827      	ldr	r0, [pc, #156]	; (15ac <configure_vic+0x164>)
    150e:	61d8      	str	r0, [r3, #28]
    1510:	2010      	movs	r0, #16
    1512:	e7b8      	b.n	1486 <configure_vic+0x3e>
    1514:	4826      	ldr	r0, [pc, #152]	; (15b0 <configure_vic+0x168>)
    1516:	61d8      	str	r0, [r3, #28]
    1518:	2002      	movs	r0, #2
    151a:	e7b4      	b.n	1486 <configure_vic+0x3e>
    151c:	2000      	movs	r0, #0
    151e:	e7b2      	b.n	1486 <configure_vic+0x3e>
    1520:	4b01      	ldr	r3, [pc, #4]	; (1528 <configure_vic+0xe0>)
    1522:	e7e5      	b.n	14f0 <configure_vic+0xa8>
    1524:	1f000014 	.word	0x1f000014
    1528:	09003012 	.word	0x09003012
    152c:	00400448 	.word	0x00400448
    1530:	1f00000c 	.word	0x1f00000c
    1534:	004005e8 	.word	0x004005e8
    1538:	1f000010 	.word	0x1f000010
    153c:	00400494 	.word	0x00400494
    1540:	00400000 	.word	0x00400000
    1544:	00001c60 	.word	0x00001c60
    1548:	2f000200 	.word	0x2f000200
    154c:	2f000100 	.word	0x2f000100
    1550:	00000300 	.word	0x00000300
    1554:	2f00010c 	.word	0x2f00010c
    1558:	00001bec 	.word	0x00001bec
    155c:	2f00020c 	.word	0x2f00020c
    1560:	2f000110 	.word	0x2f000110
    1564:	00001c98 	.word	0x00001c98
    1568:	2f000210 	.word	0x2f000210
    156c:	2f000108 	.word	0x2f000108
    1570:	00001dd0 	.word	0x00001dd0
    1574:	2f000208 	.word	0x2f000208
    1578:	2f000104 	.word	0x2f000104
    157c:	00001ed8 	.word	0x00001ed8
    1580:	2f000204 	.word	0x2f000204
    1584:	2f000114 	.word	0x2f000114
    1588:	00001d44 	.word	0x00001d44
    158c:	2f000214 	.word	0x2f000214
    1590:	2f000118 	.word	0x2f000118
    1594:	00001fa0 	.word	0x00001fa0
    1598:	2f000218 	.word	0x2f000218
    159c:	09003002 	.word	0x09003002
    15a0:	ffffdfff 	.word	0xffffdfff
    15a4:	00001d0c 	.word	0x00001d0c
    15a8:	00001e60 	.word	0x00001e60
    15ac:	00001f60 	.word	0x00001f60
    15b0:	00002008 	.word	0x00002008

000015b4 <resume>:
    15b4:	4a0b      	ldr	r2, [pc, #44]	; (15e4 <resume+0x30>)
    15b6:	b510      	push	{r4, lr}
    15b8:	6813      	ldr	r3, [r2, #0]
    15ba:	2b01      	cmp	r3, #1
    15bc:	d105      	bne.n	15ca <resume+0x16>
    15be:	2100      	movs	r1, #0
    15c0:	6011      	str	r1, [r2, #0]
    15c2:	4a09      	ldr	r2, [pc, #36]	; (15e8 <resume+0x34>)
    15c4:	7e91      	ldrb	r1, [r2, #26]
    15c6:	404b      	eors	r3, r1
    15c8:	7693      	strb	r3, [r2, #26]
    15ca:	4b08      	ldr	r3, [pc, #32]	; (15ec <resume+0x38>)
    15cc:	2200      	movs	r2, #0
    15ce:	2007      	movs	r0, #7
    15d0:	601a      	str	r2, [r3, #0]
    15d2:	f7ff f8c7 	bl	764 <sark_cpu_state>
    15d6:	4b06      	ldr	r3, [pc, #24]	; (15f0 <resume+0x3c>)
    15d8:	2210      	movs	r2, #16
    15da:	601a      	str	r2, [r3, #0]
    15dc:	4b05      	ldr	r3, [pc, #20]	; (15f4 <resume+0x40>)
    15de:	32d2      	adds	r2, #210	; 0xd2
    15e0:	601a      	str	r2, [r3, #0]
    15e2:	bd10      	pop	{r4, pc}
    15e4:	00400020 	.word	0x00400020
    15e8:	004003b0 	.word	0x004003b0
    15ec:	0040001c 	.word	0x0040001c
    15f0:	1f000010 	.word	0x1f000010
    15f4:	21000008 	.word	0x21000008

000015f8 <resume_wait>:
    15f8:	4b06      	ldr	r3, [pc, #24]	; (1614 <resume_wait+0x1c>)
    15fa:	2001      	movs	r0, #1
    15fc:	681b      	ldr	r3, [r3, #0]
    15fe:	4098      	lsls	r0, r3
    1600:	4b05      	ldr	r3, [pc, #20]	; (1618 <resume_wait+0x20>)
    1602:	7e9a      	ldrb	r2, [r3, #26]
    1604:	4b05      	ldr	r3, [pc, #20]	; (161c <resume_wait+0x24>)
    1606:	681b      	ldr	r3, [r3, #0]
    1608:	2a00      	cmp	r2, #0
    160a:	d001      	beq.n	1610 <resume_wait+0x18>
    160c:	4398      	bics	r0, r3
    160e:	4770      	bx	lr
    1610:	4018      	ands	r0, r3
    1612:	e7fc      	b.n	160e <resume_wait+0x16>
    1614:	00400374 	.word	0x00400374
    1618:	004003b0 	.word	0x004003b0
    161c:	e2000058 	.word	0xe2000058

00001620 <dispatch>:
    1620:	b5f7      	push	{r0, r1, r2, r4, r5, r6, r7, lr}
    1622:	4a33      	ldr	r2, [pc, #204]	; (16f0 <dispatch+0xd0>)
    1624:	2300      	movs	r3, #0
    1626:	6013      	str	r3, [r2, #0]
    1628:	4b32      	ldr	r3, [pc, #200]	; (16f4 <dispatch+0xd4>)
    162a:	681b      	ldr	r3, [r3, #0]
    162c:	2b00      	cmp	r3, #0
    162e:	d100      	bne.n	1632 <dispatch+0x12>
    1630:	bdf7      	pop	{r0, r1, r2, r4, r5, r6, r7, pc}
    1632:	f7fe edca 	blx	1c8 <cpu_int_disable>
    1636:	2300      	movs	r3, #0
    1638:	0004      	movs	r4, r0
    163a:	4a2e      	ldr	r2, [pc, #184]	; (16f4 <dispatch+0xd4>)
    163c:	6811      	ldr	r1, [r2, #0]
    163e:	2900      	cmp	r1, #0
    1640:	d112      	bne.n	1668 <dispatch+0x48>
    1642:	6813      	ldr	r3, [r2, #0]
    1644:	2b00      	cmp	r3, #0
    1646:	d0ef      	beq.n	1628 <dispatch+0x8>
    1648:	f7fe edca 	blx	1e0 <cpu_wfi>
    164c:	4b28      	ldr	r3, [pc, #160]	; (16f0 <dispatch+0xd0>)
    164e:	681b      	ldr	r3, [r3, #0]
    1650:	2b01      	cmp	r3, #1
    1652:	d105      	bne.n	1660 <dispatch+0x40>
    1654:	f7ff ffd0 	bl	15f8 <resume_wait>
    1658:	2800      	cmp	r0, #0
    165a:	d101      	bne.n	1660 <dispatch+0x40>
    165c:	f7ff ffaa 	bl	15b4 <resume>
    1660:	0020      	movs	r0, r4
    1662:	f7fe edba 	blx	1d8 <cpu_int_restore>
    1666:	e7df      	b.n	1628 <dispatch+0x8>
    1668:	2b03      	cmp	r3, #3
    166a:	d8ea      	bhi.n	1642 <dispatch+0x22>
    166c:	22c8      	movs	r2, #200	; 0xc8
    166e:	435a      	muls	r2, r3
    1670:	4921      	ldr	r1, [pc, #132]	; (16f8 <dispatch+0xd8>)
    1672:	1c58      	adds	r0, r3, #1
    1674:	0013      	movs	r3, r2
    1676:	18ce      	adds	r6, r1, r3
    1678:	5852      	ldr	r2, [r2, r1]
    167a:	6876      	ldr	r6, [r6, #4]
    167c:	42b2      	cmp	r2, r6
    167e:	d035      	beq.n	16ec <dispatch+0xcc>
    1680:	270c      	movs	r7, #12
    1682:	4357      	muls	r7, r2
    1684:	18ff      	adds	r7, r7, r3
    1686:	19cf      	adds	r7, r1, r7
    1688:	3201      	adds	r2, #1
    168a:	68be      	ldr	r6, [r7, #8]
    168c:	0015      	movs	r5, r2
    168e:	220f      	movs	r2, #15
    1690:	9601      	str	r6, [sp, #4]
    1692:	4015      	ands	r5, r2
    1694:	505d      	str	r5, [r3, r1]
    1696:	9b01      	ldr	r3, [sp, #4]
    1698:	68fe      	ldr	r6, [r7, #12]
    169a:	693f      	ldr	r7, [r7, #16]
    169c:	2b00      	cmp	r3, #0
    169e:	d025      	beq.n	16ec <dispatch+0xcc>
    16a0:	0020      	movs	r0, r4
    16a2:	f7fe ed9a 	blx	1d8 <cpu_int_restore>
    16a6:	4c15      	ldr	r4, [pc, #84]	; (16fc <dispatch+0xdc>)
    16a8:	9a01      	ldr	r2, [sp, #4]
    16aa:	6923      	ldr	r3, [r4, #16]
    16ac:	4293      	cmp	r3, r2
    16ae:	d102      	bne.n	16b6 <dispatch+0x96>
    16b0:	4a13      	ldr	r2, [pc, #76]	; (1700 <dispatch+0xe0>)
    16b2:	2101      	movs	r1, #1
    16b4:	6391      	str	r1, [r2, #56]	; 0x38
    16b6:	9a01      	ldr	r2, [sp, #4]
    16b8:	4293      	cmp	r3, r2
    16ba:	d103      	bne.n	16c4 <dispatch+0xa4>
    16bc:	4b11      	ldr	r3, [pc, #68]	; (1704 <dispatch+0xe4>)
    16be:	681b      	ldr	r3, [r3, #0]
    16c0:	2b00      	cmp	r3, #0
    16c2:	d103      	bne.n	16cc <dispatch+0xac>
    16c4:	9b01      	ldr	r3, [sp, #4]
    16c6:	0039      	movs	r1, r7
    16c8:	0030      	movs	r0, r6
    16ca:	4798      	blx	r3
    16cc:	9b01      	ldr	r3, [sp, #4]
    16ce:	6922      	ldr	r2, [r4, #16]
    16d0:	429a      	cmp	r2, r3
    16d2:	d107      	bne.n	16e4 <dispatch+0xc4>
    16d4:	4a0a      	ldr	r2, [pc, #40]	; (1700 <dispatch+0xe0>)
    16d6:	6bd3      	ldr	r3, [r2, #60]	; 0x3c
    16d8:	2b00      	cmp	r3, #0
    16da:	d001      	beq.n	16e0 <dispatch+0xc0>
    16dc:	3b01      	subs	r3, #1
    16de:	63d3      	str	r3, [r2, #60]	; 0x3c
    16e0:	2300      	movs	r3, #0
    16e2:	6393      	str	r3, [r2, #56]	; 0x38
    16e4:	f7fe ed70 	blx	1c8 <cpu_int_disable>
    16e8:	0004      	movs	r4, r0
    16ea:	2000      	movs	r0, #0
    16ec:	0003      	movs	r3, r0
    16ee:	e7a4      	b.n	163a <dispatch+0x1a>
    16f0:	00400020 	.word	0x00400020
    16f4:	00400024 	.word	0x00400024
    16f8:	00400028 	.word	0x00400028
    16fc:	004005f4 	.word	0x004005f4
    1700:	0040044c 	.word	0x0040044c
    1704:	0040001c 	.word	0x0040001c

00001708 <spin1_callback_on>:
    1708:	4b1d      	ldr	r3, [pc, #116]	; (1780 <spin1_callback_on+0x78>)
    170a:	b570      	push	{r4, r5, r6, lr}
    170c:	0015      	movs	r5, r2
    170e:	00c2      	lsls	r2, r0, #3
    1710:	50d1      	str	r1, [r2, r3]
    1712:	189b      	adds	r3, r3, r2
    1714:	0004      	movs	r4, r0
    1716:	605d      	str	r5, [r3, #4]
    1718:	2d00      	cmp	r5, #0
    171a:	da08      	bge.n	172e <spin1_callback_on+0x26>
    171c:	4a19      	ldr	r2, [pc, #100]	; (1784 <spin1_callback_on+0x7c>)
    171e:	6813      	ldr	r3, [r2, #0]
    1720:	1c59      	adds	r1, r3, #1
    1722:	d003      	beq.n	172c <spin1_callback_on+0x24>
    1724:	2800      	cmp	r0, #0
    1726:	d10c      	bne.n	1742 <spin1_callback_on+0x3a>
    1728:	2b05      	cmp	r3, #5
    172a:	d10e      	bne.n	174a <spin1_callback_on+0x42>
    172c:	6014      	str	r4, [r2, #0]
    172e:	2c00      	cmp	r4, #0
    1730:	d001      	beq.n	1736 <spin1_callback_on+0x2e>
    1732:	2c05      	cmp	r4, #5
    1734:	d11f      	bne.n	1776 <spin1_callback_on+0x6e>
    1736:	4a14      	ldr	r2, [pc, #80]	; (1788 <spin1_callback_on+0x80>)
    1738:	6813      	ldr	r3, [r2, #0]
    173a:	1c99      	adds	r1, r3, #2
    173c:	d113      	bne.n	1766 <spin1_callback_on+0x5e>
    173e:	6015      	str	r5, [r2, #0]
    1740:	e018      	b.n	1774 <spin1_callback_on+0x6c>
    1742:	2805      	cmp	r0, #5
    1744:	d105      	bne.n	1752 <spin1_callback_on+0x4a>
    1746:	2b00      	cmp	r3, #0
    1748:	d0f0      	beq.n	172c <spin1_callback_on+0x24>
    174a:	2013      	movs	r0, #19
    174c:	f7fe ecee 	blx	12c <rt_error>
    1750:	e7ed      	b.n	172e <spin1_callback_on+0x26>
    1752:	2806      	cmp	r0, #6
    1754:	d102      	bne.n	175c <spin1_callback_on+0x54>
    1756:	2b07      	cmp	r3, #7
    1758:	d1f7      	bne.n	174a <spin1_callback_on+0x42>
    175a:	e7e7      	b.n	172c <spin1_callback_on+0x24>
    175c:	2807      	cmp	r0, #7
    175e:	d1f4      	bne.n	174a <spin1_callback_on+0x42>
    1760:	2b06      	cmp	r3, #6
    1762:	d1f2      	bne.n	174a <spin1_callback_on+0x42>
    1764:	e7e2      	b.n	172c <spin1_callback_on+0x24>
    1766:	3301      	adds	r3, #1
    1768:	d104      	bne.n	1774 <spin1_callback_on+0x6c>
    176a:	1c6b      	adds	r3, r5, #1
    176c:	d002      	beq.n	1774 <spin1_callback_on+0x6c>
    176e:	2013      	movs	r0, #19
    1770:	f7fe ecdc 	blx	12c <rt_error>
    1774:	bd70      	pop	{r4, r5, r6, pc}
    1776:	3c06      	subs	r4, #6
    1778:	2c01      	cmp	r4, #1
    177a:	d8fb      	bhi.n	1774 <spin1_callback_on+0x6c>
    177c:	4a03      	ldr	r2, [pc, #12]	; (178c <spin1_callback_on+0x84>)
    177e:	e7db      	b.n	1738 <spin1_callback_on+0x30>
    1780:	004005f4 	.word	0x004005f4
    1784:	00400000 	.word	0x00400000
    1788:	00400008 	.word	0x00400008
    178c:	00400004 	.word	0x00400004

00001790 <spin1_get_simulation_time>:
    1790:	4b01      	ldr	r3, [pc, #4]	; (1798 <spin1_get_simulation_time+0x8>)
    1792:	6818      	ldr	r0, [r3, #0]
    1794:	4770      	bx	lr
    1796:	46c0      	nop			; (mov r8, r8)
    1798:	004005ec 	.word	0x004005ec

0000179c <spin1_exit>:
    179c:	4b04      	ldr	r3, [pc, #16]	; (17b0 <spin1_exit+0x14>)
    179e:	4a05      	ldr	r2, [pc, #20]	; (17b4 <spin1_exit+0x18>)
    17a0:	601a      	str	r2, [r3, #0]
    17a2:	4b05      	ldr	r3, [pc, #20]	; (17b8 <spin1_exit+0x1c>)
    17a4:	2200      	movs	r2, #0
    17a6:	601a      	str	r2, [r3, #0]
    17a8:	4b04      	ldr	r3, [pc, #16]	; (17bc <spin1_exit+0x20>)
    17aa:	6018      	str	r0, [r3, #0]
    17ac:	4770      	bx	lr
    17ae:	46c0      	nop			; (mov r8, r8)
    17b0:	1f000014 	.word	0x1f000014
    17b4:	09003012 	.word	0x09003012
    17b8:	00400024 	.word	0x00400024
    17bc:	0040044c 	.word	0x0040044c

000017c0 <clean_up>:
    17c0:	b510      	push	{r4, lr}
    17c2:	f7fe ed02 	blx	1c8 <cpu_int_disable>
    17c6:	4b10      	ldr	r3, [pc, #64]	; (1808 <clean_up+0x48>)
    17c8:	681a      	ldr	r2, [r3, #0]
    17ca:	2320      	movs	r3, #32
    17cc:	61da      	str	r2, [r3, #28]
    17ce:	4b0f      	ldr	r3, [pc, #60]	; (180c <clean_up+0x4c>)
    17d0:	681a      	ldr	r2, [r3, #0]
    17d2:	4b0f      	ldr	r3, [pc, #60]	; (1810 <clean_up+0x50>)
    17d4:	601a      	str	r2, [r3, #0]
    17d6:	4b0f      	ldr	r3, [pc, #60]	; (1814 <clean_up+0x54>)
    17d8:	681a      	ldr	r2, [r3, #0]
    17da:	4b0f      	ldr	r3, [pc, #60]	; (1818 <clean_up+0x58>)
    17dc:	601a      	str	r2, [r3, #0]
    17de:	2359      	movs	r3, #89	; 0x59
    17e0:	781b      	ldrb	r3, [r3, #0]
    17e2:	4a0e      	ldr	r2, [pc, #56]	; (181c <clean_up+0x5c>)
    17e4:	009b      	lsls	r3, r3, #2
    17e6:	189b      	adds	r3, r3, r2
    17e8:	2232      	movs	r2, #50	; 0x32
    17ea:	601a      	str	r2, [r3, #0]
    17ec:	4b0c      	ldr	r3, [pc, #48]	; (1820 <clean_up+0x60>)
    17ee:	3a31      	subs	r2, #49	; 0x31
    17f0:	601a      	str	r2, [r3, #0]
    17f2:	4b0c      	ldr	r3, [pc, #48]	; (1824 <clean_up+0x64>)
    17f4:	2200      	movs	r2, #0
    17f6:	601a      	str	r2, [r3, #0]
    17f8:	4b0b      	ldr	r3, [pc, #44]	; (1828 <clean_up+0x68>)
    17fa:	323f      	adds	r2, #63	; 0x3f
    17fc:	601a      	str	r2, [r3, #0]
    17fe:	3a32      	subs	r2, #50	; 0x32
    1800:	601a      	str	r2, [r3, #0]
    1802:	f7fe ecea 	blx	1d8 <cpu_int_restore>
    1806:	bd10      	pop	{r4, pc}
    1808:	00400448 	.word	0x00400448
    180c:	004005e8 	.word	0x004005e8
    1810:	1f00000c 	.word	0x1f00000c
    1814:	00400494 	.word	0x00400494
    1818:	1f000010 	.word	0x1f000010
    181c:	2f000200 	.word	0x2f000200
    1820:	2100000c 	.word	0x2100000c
    1824:	40000018 	.word	0x40000018
    1828:	40000010 	.word	0x40000010

0000182c <report_debug>:
    182c:	4b12      	ldr	r3, [pc, #72]	; (1878 <report_debug+0x4c>)
    182e:	b510      	push	{r4, lr}
    1830:	781b      	ldrb	r3, [r3, #0]
    1832:	2b00      	cmp	r3, #0
    1834:	d00e      	beq.n	1854 <report_debug+0x28>
    1836:	4b11      	ldr	r3, [pc, #68]	; (187c <report_debug+0x50>)
    1838:	4911      	ldr	r1, [pc, #68]	; (1880 <report_debug+0x54>)
    183a:	681a      	ldr	r2, [r3, #0]
    183c:	4b11      	ldr	r3, [pc, #68]	; (1884 <report_debug+0x58>)
    183e:	2002      	movs	r0, #2
    1840:	681b      	ldr	r3, [r3, #0]
    1842:	18d2      	adds	r2, r2, r3
    1844:	f7ff fc8a 	bl	115c <io_printf>
    1848:	4b0f      	ldr	r3, [pc, #60]	; (1888 <report_debug+0x5c>)
    184a:	4910      	ldr	r1, [pc, #64]	; (188c <report_debug+0x60>)
    184c:	681a      	ldr	r2, [r3, #0]
    184e:	2002      	movs	r0, #2
    1850:	f7ff fc84 	bl	115c <io_printf>
    1854:	4c0e      	ldr	r4, [pc, #56]	; (1890 <report_debug+0x64>)
    1856:	490f      	ldr	r1, [pc, #60]	; (1894 <report_debug+0x68>)
    1858:	6922      	ldr	r2, [r4, #16]
    185a:	2002      	movs	r0, #2
    185c:	f7ff fc7e 	bl	115c <io_printf>
    1860:	6b62      	ldr	r2, [r4, #52]	; 0x34
    1862:	490d      	ldr	r1, [pc, #52]	; (1898 <report_debug+0x6c>)
    1864:	2002      	movs	r0, #2
    1866:	f7ff fc79 	bl	115c <io_printf>
    186a:	4b0c      	ldr	r3, [pc, #48]	; (189c <report_debug+0x70>)
    186c:	490c      	ldr	r1, [pc, #48]	; (18a0 <report_debug+0x74>)
    186e:	681a      	ldr	r2, [r3, #0]
    1870:	2002      	movs	r0, #2
    1872:	f7ff fc73 	bl	115c <io_printf>
    1876:	bd10      	pop	{r4, pc}
    1878:	0040049c 	.word	0x0040049c
    187c:	e1000300 	.word	0xe1000300
    1880:	00002263 	.word	0x00002263
    1884:	e1000304 	.word	0xe1000304
    1888:	e1000320 	.word	0xe1000320
    188c:	00002289 	.word	0x00002289
    1890:	0040044c 	.word	0x0040044c
    1894:	000022af 	.word	0x000022af
    1898:	000022d5 	.word	0x000022d5
    189c:	40000040 	.word	0x40000040
    18a0:	000022fe 	.word	0x000022fe

000018a4 <report_warns>:
    18a4:	b510      	push	{r4, lr}
    18a6:	4c0d      	ldr	r4, [pc, #52]	; (18dc <report_warns+0x38>)
    18a8:	6863      	ldr	r3, [r4, #4]
    18aa:	07db      	lsls	r3, r3, #31
    18ac:	d504      	bpl.n	18b8 <report_warns+0x14>
    18ae:	6a22      	ldr	r2, [r4, #32]
    18b0:	490b      	ldr	r1, [pc, #44]	; (18e0 <report_warns+0x3c>)
    18b2:	2002      	movs	r0, #2
    18b4:	f7ff fc52 	bl	115c <io_printf>
    18b8:	6863      	ldr	r3, [r4, #4]
    18ba:	2002      	movs	r0, #2
    18bc:	4203      	tst	r3, r0
    18be:	d003      	beq.n	18c8 <report_warns+0x24>
    18c0:	69e2      	ldr	r2, [r4, #28]
    18c2:	4908      	ldr	r1, [pc, #32]	; (18e4 <report_warns+0x40>)
    18c4:	f7ff fc4a 	bl	115c <io_printf>
    18c8:	6863      	ldr	r3, [r4, #4]
    18ca:	075b      	lsls	r3, r3, #29
    18cc:	d504      	bpl.n	18d8 <report_warns+0x34>
    18ce:	6a62      	ldr	r2, [r4, #36]	; 0x24
    18d0:	4905      	ldr	r1, [pc, #20]	; (18e8 <report_warns+0x44>)
    18d2:	2002      	movs	r0, #2
    18d4:	f7ff fc42 	bl	115c <io_printf>
    18d8:	bd10      	pop	{r4, pc}
    18da:	46c0      	nop			; (mov r8, r8)
    18dc:	0040044c 	.word	0x0040044c
    18e0:	0000231d 	.word	0x0000231d
    18e4:	00002349 	.word	0x00002349
    18e8:	00002374 	.word	0x00002374

000018ec <start>:
    18ec:	b5f7      	push	{r0, r1, r2, r4, r5, r6, r7, lr}
    18ee:	4e2e      	ldr	r6, [pc, #184]	; (19a8 <start+0xbc>)
    18f0:	9001      	str	r0, [sp, #4]
    18f2:	6031      	str	r1, [r6, #0]
    18f4:	6833      	ldr	r3, [r6, #0]
    18f6:	200a      	movs	r0, #10
    18f8:	2b00      	cmp	r3, #0
    18fa:	d100      	bne.n	18fe <start+0x12>
    18fc:	2007      	movs	r0, #7
    18fe:	f7fe ff31 	bl	764 <sark_cpu_state>
    1902:	2380      	movs	r3, #128	; 0x80
    1904:	2500      	movs	r5, #0
    1906:	059b      	lsls	r3, r3, #22
    1908:	601d      	str	r5, [r3, #0]
    190a:	f7ff fd6f 	bl	13ec <configure_dma_controller>
    190e:	4b27      	ldr	r3, [pc, #156]	; (19ac <start+0xc0>)
    1910:	4f27      	ldr	r7, [pc, #156]	; (19b0 <start+0xc4>)
    1912:	6819      	ldr	r1, [r3, #0]
    1914:	6838      	ldr	r0, [r7, #0]
    1916:	f7ff fd7d 	bl	1414 <configure_timer1>
    191a:	6830      	ldr	r0, [r6, #0]
    191c:	4243      	negs	r3, r0
    191e:	4158      	adcs	r0, r3
    1920:	f7ff fd92 	bl	1448 <configure_vic>
    1924:	4c23      	ldr	r4, [pc, #140]	; (19b4 <start+0xc8>)
    1926:	2301      	movs	r3, #1
    1928:	6163      	str	r3, [r4, #20]
    192a:	9b01      	ldr	r3, [sp, #4]
    192c:	6065      	str	r5, [r4, #4]
    192e:	61e5      	str	r5, [r4, #28]
    1930:	6225      	str	r5, [r4, #32]
    1932:	6265      	str	r5, [r4, #36]	; 0x24
    1934:	6025      	str	r5, [r4, #0]
    1936:	63a5      	str	r5, [r4, #56]	; 0x38
    1938:	63e5      	str	r5, [r4, #60]	; 0x3c
    193a:	6465      	str	r5, [r4, #68]	; 0x44
    193c:	6425      	str	r5, [r4, #64]	; 0x40
    193e:	2b01      	cmp	r3, #1
    1940:	d101      	bne.n	1946 <start+0x5a>
    1942:	f7ff f9cd 	bl	ce0 <event_wait>
    1946:	683b      	ldr	r3, [r7, #0]
    1948:	2b00      	cmp	r3, #0
    194a:	d005      	beq.n	1958 <start+0x6c>
    194c:	6833      	ldr	r3, [r6, #0]
    194e:	2b00      	cmp	r3, #0
    1950:	d102      	bne.n	1958 <start+0x6c>
    1952:	4b19      	ldr	r3, [pc, #100]	; (19b8 <start+0xcc>)
    1954:	22e2      	movs	r2, #226	; 0xe2
    1956:	601a      	str	r2, [r3, #0]
    1958:	4b18      	ldr	r3, [pc, #96]	; (19bc <start+0xd0>)
    195a:	2200      	movs	r2, #0
    195c:	601a      	str	r2, [r3, #0]
    195e:	4b18      	ldr	r3, [pc, #96]	; (19c0 <start+0xd4>)
    1960:	3201      	adds	r2, #1
    1962:	601a      	str	r2, [r3, #0]
    1964:	f7ff fe5c 	bl	1620 <dispatch>
    1968:	f7ff ff2a 	bl	17c0 <clean_up>
    196c:	f7fe ec24 	blx	1b8 <cpu_int_enable>
    1970:	4b14      	ldr	r3, [pc, #80]	; (19c4 <start+0xd8>)
    1972:	4a15      	ldr	r2, [pc, #84]	; (19c8 <start+0xdc>)
    1974:	681b      	ldr	r3, [r3, #0]
    1976:	6812      	ldr	r2, [r2, #0]
    1978:	189b      	adds	r3, r3, r2
    197a:	60a3      	str	r3, [r4, #8]
    197c:	4b13      	ldr	r3, [pc, #76]	; (19cc <start+0xe0>)
    197e:	4a14      	ldr	r2, [pc, #80]	; (19d0 <start+0xe4>)
    1980:	681b      	ldr	r3, [r3, #0]
    1982:	60e3      	str	r3, [r4, #12]
    1984:	4b13      	ldr	r3, [pc, #76]	; (19d4 <start+0xe8>)
    1986:	681b      	ldr	r3, [r3, #0]
    1988:	61a3      	str	r3, [r4, #24]
    198a:	4b13      	ldr	r3, [pc, #76]	; (19d8 <start+0xec>)
    198c:	681b      	ldr	r3, [r3, #0]
    198e:	6812      	ldr	r2, [r2, #0]
    1990:	189b      	adds	r3, r3, r2
    1992:	62e3      	str	r3, [r4, #44]	; 0x2c
    1994:	4b11      	ldr	r3, [pc, #68]	; (19dc <start+0xf0>)
    1996:	681b      	ldr	r3, [r3, #0]
    1998:	6323      	str	r3, [r4, #48]	; 0x30
    199a:	f7ff ff47 	bl	182c <report_debug>
    199e:	f7ff ff81 	bl	18a4 <report_warns>
    19a2:	6820      	ldr	r0, [r4, #0]
    19a4:	bdfe      	pop	{r1, r2, r3, r4, r5, r6, r7, pc}
    19a6:	46c0      	nop			; (mov r8, r8)
    19a8:	0040001c 	.word	0x0040001c
    19ac:	00400348 	.word	0x00400348
    19b0:	0040034c 	.word	0x0040034c
    19b4:	0040044c 	.word	0x0040044c
    19b8:	21000008 	.word	0x21000008
    19bc:	004005ec 	.word	0x004005ec
    19c0:	00400024 	.word	0x00400024
    19c4:	e1000300 	.word	0xe1000300
    19c8:	e1000304 	.word	0xe1000304
    19cc:	e1000320 	.word	0xe1000320
    19d0:	e100031c 	.word	0xe100031c
    19d4:	40000040 	.word	0x40000040
    19d8:	e1000318 	.word	0xe1000318
    19dc:	e100032c 	.word	0xe100032c

000019e0 <spin1_start>:
    19e0:	b510      	push	{r4, lr}
    19e2:	2100      	movs	r1, #0
    19e4:	f7ff ff82 	bl	18ec <start>
    19e8:	bd10      	pop	{r4, pc}

000019ea <spin1_delay_us>:
    19ea:	b510      	push	{r4, lr}
    19ec:	f7fe fc66 	bl	2bc <sark_delay_us>
    19f0:	bd10      	pop	{r4, pc}
	...

000019f4 <spin1_send_packet>:
    19f4:	b5f0      	push	{r4, r5, r6, r7, lr}
    19f6:	b085      	sub	sp, #20
    19f8:	000d      	movs	r5, r1
    19fa:	0014      	movs	r4, r2
    19fc:	0006      	movs	r6, r0
    19fe:	f7fe ebd4 	blx	1a8 <cpu_irq_disable>
    1a02:	2180      	movs	r1, #128	; 0x80
    1a04:	0589      	lsls	r1, r1, #22
    1a06:	2300      	movs	r3, #0
    1a08:	270f      	movs	r7, #15
    1a0a:	9001      	str	r0, [sp, #4]
    1a0c:	600b      	str	r3, [r1, #0]
    1a0e:	680a      	ldr	r2, [r1, #0]
    1a10:	4694      	mov	ip, r2
    1a12:	4660      	mov	r0, ip
    1a14:	4a32      	ldr	r2, [pc, #200]	; (1ae0 <spin1_send_packet+0xec>)
    1a16:	0040      	lsls	r0, r0, #1
    1a18:	d522      	bpl.n	1a60 <spin1_send_packet+0x6c>
    1a1a:	6850      	ldr	r0, [r2, #4]
    1a1c:	1c41      	adds	r1, r0, #1
    1a1e:	400f      	ands	r7, r1
    1a20:	6811      	ldr	r1, [r2, #0]
    1a22:	428f      	cmp	r7, r1
    1a24:	d10e      	bne.n	1a44 <spin1_send_packet+0x50>
    1a26:	4a2f      	ldr	r2, [pc, #188]	; (1ae4 <spin1_send_packet+0xf0>)
    1a28:	2104      	movs	r1, #4
    1a2a:	6850      	ldr	r0, [r2, #4]
    1a2c:	001c      	movs	r4, r3
    1a2e:	4301      	orrs	r1, r0
    1a30:	6051      	str	r1, [r2, #4]
    1a32:	6a51      	ldr	r1, [r2, #36]	; 0x24
    1a34:	3101      	adds	r1, #1
    1a36:	6251      	str	r1, [r2, #36]	; 0x24
    1a38:	9801      	ldr	r0, [sp, #4]
    1a3a:	f7fe ebce 	blx	1d8 <cpu_int_restore>
    1a3e:	0020      	movs	r0, r4
    1a40:	b005      	add	sp, #20
    1a42:	bdf0      	pop	{r4, r5, r6, r7, pc}
    1a44:	230c      	movs	r3, #12
    1a46:	0001      	movs	r1, r0
    1a48:	4359      	muls	r1, r3
    1a4a:	6057      	str	r7, [r2, #4]
    1a4c:	1851      	adds	r1, r2, r1
    1a4e:	4b26      	ldr	r3, [pc, #152]	; (1ae8 <spin1_send_packet+0xf4>)
    1a50:	2280      	movs	r2, #128	; 0x80
    1a52:	0112      	lsls	r2, r2, #4
    1a54:	608e      	str	r6, [r1, #8]
    1a56:	60cd      	str	r5, [r1, #12]
    1a58:	610c      	str	r4, [r1, #16]
    1a5a:	601a      	str	r2, [r3, #0]
    1a5c:	2401      	movs	r4, #1
    1a5e:	e7eb      	b.n	1a38 <spin1_send_packet+0x44>
    1a60:	6853      	ldr	r3, [r2, #4]
    1a62:	6810      	ldr	r0, [r2, #0]
    1a64:	3301      	adds	r3, #1
    1a66:	403b      	ands	r3, r7
    1a68:	4283      	cmp	r3, r0
    1a6a:	d11a      	bne.n	1aa2 <spin1_send_packet+0xae>
    1a6c:	200c      	movs	r0, #12
    1a6e:	4684      	mov	ip, r0
    1a70:	4660      	mov	r0, ip
    1a72:	4358      	muls	r0, r3
    1a74:	4684      	mov	ip, r0
    1a76:	4494      	add	ip, r2
    1a78:	4660      	mov	r0, ip
    1a7a:	6880      	ldr	r0, [r0, #8]
    1a7c:	9002      	str	r0, [sp, #8]
    1a7e:	4660      	mov	r0, ip
    1a80:	68c0      	ldr	r0, [r0, #12]
    1a82:	9003      	str	r0, [sp, #12]
    1a84:	4660      	mov	r0, ip
    1a86:	6900      	ldr	r0, [r0, #16]
    1a88:	3301      	adds	r3, #1
    1a8a:	403b      	ands	r3, r7
    1a8c:	6013      	str	r3, [r2, #0]
    1a8e:	0003      	movs	r3, r0
    1a90:	6008      	str	r0, [r1, #0]
    1a92:	039b      	lsls	r3, r3, #14
    1a94:	d502      	bpl.n	1a9c <spin1_send_packet+0xa8>
    1a96:	4b15      	ldr	r3, [pc, #84]	; (1aec <spin1_send_packet+0xf8>)
    1a98:	9a03      	ldr	r2, [sp, #12]
    1a9a:	601a      	str	r2, [r3, #0]
    1a9c:	4b14      	ldr	r3, [pc, #80]	; (1af0 <spin1_send_packet+0xfc>)
    1a9e:	9a02      	ldr	r2, [sp, #8]
    1aa0:	601a      	str	r2, [r3, #0]
    1aa2:	490f      	ldr	r1, [pc, #60]	; (1ae0 <spin1_send_packet+0xec>)
    1aa4:	684b      	ldr	r3, [r1, #4]
    1aa6:	680a      	ldr	r2, [r1, #0]
    1aa8:	429a      	cmp	r2, r3
    1aaa:	d10c      	bne.n	1ac6 <spin1_send_packet+0xd2>
    1aac:	2380      	movs	r3, #128	; 0x80
    1aae:	059b      	lsls	r3, r3, #22
    1ab0:	601c      	str	r4, [r3, #0]
    1ab2:	03a3      	lsls	r3, r4, #14
    1ab4:	d501      	bpl.n	1aba <spin1_send_packet+0xc6>
    1ab6:	4b0d      	ldr	r3, [pc, #52]	; (1aec <spin1_send_packet+0xf8>)
    1ab8:	601d      	str	r5, [r3, #0]
    1aba:	4b0d      	ldr	r3, [pc, #52]	; (1af0 <spin1_send_packet+0xfc>)
    1abc:	2280      	movs	r2, #128	; 0x80
    1abe:	601e      	str	r6, [r3, #0]
    1ac0:	0112      	lsls	r2, r2, #4
    1ac2:	4b0c      	ldr	r3, [pc, #48]	; (1af4 <spin1_send_packet+0x100>)
    1ac4:	e7c9      	b.n	1a5a <spin1_send_packet+0x66>
    1ac6:	200c      	movs	r0, #12
    1ac8:	0002      	movs	r2, r0
    1aca:	435a      	muls	r2, r3
    1acc:	188a      	adds	r2, r1, r2
    1ace:	6096      	str	r6, [r2, #8]
    1ad0:	60d5      	str	r5, [r2, #12]
    1ad2:	6114      	str	r4, [r2, #16]
    1ad4:	3301      	adds	r3, #1
    1ad6:	220f      	movs	r2, #15
    1ad8:	4013      	ands	r3, r2
    1ada:	604b      	str	r3, [r1, #4]
    1adc:	e7be      	b.n	1a5c <spin1_send_packet+0x68>
    1ade:	46c0      	nop			; (mov r8, r8)
    1ae0:	00400634 	.word	0x00400634
    1ae4:	0040044c 	.word	0x0040044c
    1ae8:	1f000010 	.word	0x1f000010
    1aec:	20000004 	.word	0x20000004
    1af0:	20000008 	.word	0x20000008
    1af4:	1f000014 	.word	0x1f000014

00001af8 <spin1_send_mc_packet>:
    1af8:	b510      	push	{r4, lr}
    1afa:	2a00      	cmp	r2, #0
    1afc:	d001      	beq.n	1b02 <spin1_send_mc_packet+0xa>
    1afe:	2280      	movs	r2, #128	; 0x80
    1b00:	0292      	lsls	r2, r2, #10
    1b02:	f7ff ff77 	bl	19f4 <spin1_send_packet>
    1b06:	bd10      	pop	{r4, pc}

00001b08 <spin1_get_core_id>:
    1b08:	4b01      	ldr	r3, [pc, #4]	; (1b10 <spin1_get_core_id+0x8>)
    1b0a:	6818      	ldr	r0, [r3, #0]
    1b0c:	4770      	bx	lr
    1b0e:	46c0      	nop			; (mov r8, r8)
    1b10:	00400374 	.word	0x00400374

00001b14 <spin1_get_chip_id>:
    1b14:	4b01      	ldr	r3, [pc, #4]	; (1b1c <spin1_get_chip_id+0x8>)
    1b16:	8818      	ldrh	r0, [r3, #0]
    1b18:	4770      	bx	lr
    1b1a:	46c0      	nop			; (mov r8, r8)
    1b1c:	e5007f00 	.word	0xe5007f00

00001b20 <schedule_sysmode>:
    1b20:	b5f0      	push	{r4, r5, r6, r7, lr}
    1b22:	b085      	sub	sp, #20
    1b24:	9003      	str	r0, [sp, #12]
    1b26:	9b03      	ldr	r3, [sp, #12]
    1b28:	4d1e      	ldr	r5, [pc, #120]	; (1ba4 <schedule_sysmode+0x84>)
    1b2a:	00de      	lsls	r6, r3, #3
    1b2c:	19ab      	adds	r3, r5, r6
    1b2e:	685c      	ldr	r4, [r3, #4]
    1b30:	0008      	movs	r0, r1
    1b32:	2c00      	cmp	r4, #0
    1b34:	dc04      	bgt.n	1b40 <schedule_sysmode+0x20>
    1b36:	5973      	ldr	r3, [r6, r5]
    1b38:	0011      	movs	r1, r2
    1b3a:	4798      	blx	r3
    1b3c:	b005      	add	sp, #20
    1b3e:	bdf0      	pop	{r4, r5, r6, r7, pc}
    1b40:	3c01      	subs	r4, #1
    1b42:	21c8      	movs	r1, #200	; 0xc8
    1b44:	0027      	movs	r7, r4
    1b46:	434f      	muls	r7, r1
    1b48:	4b17      	ldr	r3, [pc, #92]	; (1ba8 <schedule_sysmode+0x88>)
    1b4a:	9701      	str	r7, [sp, #4]
    1b4c:	19df      	adds	r7, r3, r7
    1b4e:	6879      	ldr	r1, [r7, #4]
    1b50:	9102      	str	r1, [sp, #8]
    1b52:	3101      	adds	r1, #1
    1b54:	468c      	mov	ip, r1
    1b56:	4664      	mov	r4, ip
    1b58:	210f      	movs	r1, #15
    1b5a:	400c      	ands	r4, r1
    1b5c:	9901      	ldr	r1, [sp, #4]
    1b5e:	46a4      	mov	ip, r4
    1b60:	58c9      	ldr	r1, [r1, r3]
    1b62:	428c      	cmp	r4, r1
    1b64:	d014      	beq.n	1b90 <schedule_sysmode+0x70>
    1b66:	9c02      	ldr	r4, [sp, #8]
    1b68:	210c      	movs	r1, #12
    1b6a:	434c      	muls	r4, r1
    1b6c:	0021      	movs	r1, r4
    1b6e:	9c01      	ldr	r4, [sp, #4]
    1b70:	190c      	adds	r4, r1, r4
    1b72:	191b      	adds	r3, r3, r4
    1b74:	5971      	ldr	r1, [r6, r5]
    1b76:	6099      	str	r1, [r3, #8]
    1b78:	60d8      	str	r0, [r3, #12]
    1b7a:	611a      	str	r2, [r3, #16]
    1b7c:	4663      	mov	r3, ip
    1b7e:	607b      	str	r3, [r7, #4]
    1b80:	9b03      	ldr	r3, [sp, #12]
    1b82:	2b02      	cmp	r3, #2
    1b84:	d1da      	bne.n	1b3c <schedule_sysmode+0x1c>
    1b86:	4a09      	ldr	r2, [pc, #36]	; (1bac <schedule_sysmode+0x8c>)
    1b88:	6bd3      	ldr	r3, [r2, #60]	; 0x3c
    1b8a:	3301      	adds	r3, #1
    1b8c:	63d3      	str	r3, [r2, #60]	; 0x3c
    1b8e:	e7d5      	b.n	1b3c <schedule_sysmode+0x1c>
    1b90:	4b06      	ldr	r3, [pc, #24]	; (1bac <schedule_sysmode+0x8c>)
    1b92:	2201      	movs	r2, #1
    1b94:	6859      	ldr	r1, [r3, #4]
    1b96:	430a      	orrs	r2, r1
    1b98:	605a      	str	r2, [r3, #4]
    1b9a:	6a1a      	ldr	r2, [r3, #32]
    1b9c:	3201      	adds	r2, #1
    1b9e:	621a      	str	r2, [r3, #32]
    1ba0:	e7cc      	b.n	1b3c <schedule_sysmode+0x1c>
    1ba2:	46c0      	nop			; (mov r8, r8)
    1ba4:	004005f4 	.word	0x004005f4
    1ba8:	00400028 	.word	0x00400028
    1bac:	0040044c 	.word	0x0040044c

00001bb0 <sark_pre_main>:
    1bb0:	b510      	push	{r4, lr}
    1bb2:	f7fe fe4d 	bl	850 <sark_call_cpp_constructors>
    1bb6:	2006      	movs	r0, #6
    1bb8:	f7fe fdd4 	bl	764 <sark_cpu_state>
    1bbc:	235b      	movs	r3, #91	; 0x5b
    1bbe:	2201      	movs	r2, #1
    1bc0:	701a      	strb	r2, [r3, #0]
    1bc2:	f7fe fdd7 	bl	774 <sark_app_lead>
    1bc6:	4b04      	ldr	r3, [pc, #16]	; (1bd8 <sark_pre_main+0x28>)
    1bc8:	681b      	ldr	r3, [r3, #0]
    1bca:	1a18      	subs	r0, r3, r0
    1bcc:	4243      	negs	r3, r0
    1bce:	4158      	adcs	r0, r3
    1bd0:	4b02      	ldr	r3, [pc, #8]	; (1bdc <sark_pre_main+0x2c>)
    1bd2:	7018      	strb	r0, [r3, #0]
    1bd4:	bd10      	pop	{r4, pc}
    1bd6:	46c0      	nop			; (mov r8, r8)
    1bd8:	00400374 	.word	0x00400374
    1bdc:	0040049c 	.word	0x0040049c

00001be0 <sark_post_main>:
    1be0:	b510      	push	{r4, lr}
    1be2:	200b      	movs	r0, #11
    1be4:	f7fe fdbe 	bl	764 <sark_cpu_state>
    1be8:	bd10      	pop	{r4, pc}
	...

00001bec <cc_rx_ready_isr>:
    1bec:	e24ee004 	sub	lr, lr, #4
    1bf0:	e92d500f 	push	{r0, r1, r2, r3, ip, lr}
    1bf4:	e3a03202 	mov	r3, #536870912	; 0x20000000
    1bf8:	e593200c 	ldr	r2, [r3, #12]
    1bfc:	e59f0054 	ldr	r0, [pc, #84]	; 1c58 <cc_rx_ready_isr+0x6c>
    1c00:	e2122802 	ands	r2, r2, #131072	; 0x20000
    1c04:	0a00000a 	beq	1c34 <cc_rx_ready_isr+0x48>
    1c08:	e5932010 	ldr	r2, [r3, #16]
    1c0c:	e5931014 	ldr	r1, [r3, #20]
    1c10:	e5903028 	ldr	r3, [r0, #40]	; 0x28
    1c14:	e3530000 	cmp	r3, #0
    1c18:	13a00005 	movne	r0, #5
    1c1c:	1a000009 	bne	1c48 <cc_rx_ready_isr+0x5c>
    1c20:	e59f2034 	ldr	r2, [pc, #52]	; 1c5c <cc_rx_ready_isr+0x70>
    1c24:	e5923010 	ldr	r3, [r2, #16]
    1c28:	e2833001 	add	r3, r3, #1
    1c2c:	e5823010 	str	r3, [r2, #16]
    1c30:	ea000005 	b	1c4c <cc_rx_ready_isr+0x60>
    1c34:	e5931014 	ldr	r1, [r3, #20]
    1c38:	e5903000 	ldr	r3, [r0]
    1c3c:	e3530000 	cmp	r3, #0
    1c40:	0afffff6 	beq	1c20 <cc_rx_ready_isr+0x34>
    1c44:	e1a00002 	mov	r0, r2
    1c48:	ebfff9b9 	bl	334 <schedule>
    1c4c:	e3a0341f 	mov	r3, #520093696	; 0x1f000000
    1c50:	e5833030 	str	r3, [r3, #48]	; 0x30
    1c54:	e8fd900f 	ldm	sp!, {r0, r1, r2, r3, ip, pc}^
    1c58:	004005f4 	.word	0x004005f4
    1c5c:	0040044c 	.word	0x0040044c

00001c60 <cc_rx_ready_fiqsr>:
    1c60:	e24ee004 	sub	lr, lr, #4
    1c64:	e92d500f 	push	{r0, r1, r2, r3, ip, lr}
    1c68:	e3a03202 	mov	r3, #536870912	; 0x20000000
    1c6c:	e593100c 	ldr	r1, [r3, #12]
    1c70:	e59f201c 	ldr	r2, [pc, #28]	; 1c94 <cc_rx_ready_fiqsr+0x34>
    1c74:	e2111802 	ands	r1, r1, #131072	; 0x20000
    1c78:	15931010 	ldrne	r1, [r3, #16]
    1c7c:	05930014 	ldreq	r0, [r3, #20]
    1c80:	15930014 	ldrne	r0, [r3, #20]
    1c84:	05923000 	ldreq	r3, [r2]
    1c88:	15923028 	ldrne	r3, [r2, #40]	; 0x28
    1c8c:	e12fff33 	blx	r3
    1c90:	e8fd900f 	ldm	sp!, {r0, r1, r2, r3, ip, pc}^
    1c94:	004005f4 	.word	0x004005f4

00001c98 <cc_fr_ready_isr>:
    1c98:	e24ee004 	sub	lr, lr, #4
    1c9c:	e92d500f 	push	{r0, r1, r2, r3, ip, lr}
    1ca0:	e3a03202 	mov	r3, #536870912	; 0x20000000
    1ca4:	e593200c 	ldr	r2, [r3, #12]
    1ca8:	e59f0054 	ldr	r0, [pc, #84]	; 1d04 <cc_fr_ready_isr+0x6c>
    1cac:	e2122802 	ands	r2, r2, #131072	; 0x20000
    1cb0:	0a00000c 	beq	1ce8 <cc_fr_ready_isr+0x50>
    1cb4:	e5932010 	ldr	r2, [r3, #16]
    1cb8:	e5931014 	ldr	r1, [r3, #20]
    1cbc:	e5903038 	ldr	r3, [r0, #56]	; 0x38
    1cc0:	e3530000 	cmp	r3, #0
    1cc4:	13a00007 	movne	r0, #7
    1cc8:	1a00000b 	bne	1cfc <cc_fr_ready_isr+0x64>
    1ccc:	e59f2034 	ldr	r2, [pc, #52]	; 1d08 <cc_fr_ready_isr+0x70>
    1cd0:	e5923034 	ldr	r3, [r2, #52]	; 0x34
    1cd4:	e2833001 	add	r3, r3, #1
    1cd8:	e5823034 	str	r3, [r2, #52]	; 0x34
    1cdc:	e3a0341f 	mov	r3, #520093696	; 0x1f000000
    1ce0:	e5833030 	str	r3, [r3, #48]	; 0x30
    1ce4:	e8fd900f 	ldm	sp!, {r0, r1, r2, r3, ip, pc}^
    1ce8:	e5931014 	ldr	r1, [r3, #20]
    1cec:	e5903030 	ldr	r3, [r0, #48]	; 0x30
    1cf0:	e3530000 	cmp	r3, #0
    1cf4:	0afffff4 	beq	1ccc <cc_fr_ready_isr+0x34>
    1cf8:	e3a00006 	mov	r0, #6
    1cfc:	ebfff98c 	bl	334 <schedule>
    1d00:	eafffff5 	b	1cdc <cc_fr_ready_isr+0x44>
    1d04:	004005f4 	.word	0x004005f4
    1d08:	0040044c 	.word	0x0040044c

00001d0c <cc_fr_ready_fiqsr>:
    1d0c:	e24ee004 	sub	lr, lr, #4
    1d10:	e92d500f 	push	{r0, r1, r2, r3, ip, lr}
    1d14:	e3a03202 	mov	r3, #536870912	; 0x20000000
    1d18:	e593100c 	ldr	r1, [r3, #12]
    1d1c:	e59f201c 	ldr	r2, [pc, #28]	; 1d40 <cc_fr_ready_fiqsr+0x34>
    1d20:	e2111802 	ands	r1, r1, #131072	; 0x20000
    1d24:	15931010 	ldrne	r1, [r3, #16]
    1d28:	05930014 	ldreq	r0, [r3, #20]
    1d2c:	15930014 	ldrne	r0, [r3, #20]
    1d30:	05923030 	ldreq	r3, [r2, #48]	; 0x30
    1d34:	15923038 	ldrne	r3, [r2, #56]	; 0x38
    1d38:	e12fff33 	blx	r3
    1d3c:	e8fd900f 	ldm	sp!, {r0, r1, r2, r3, ip, pc}^
    1d40:	004005f4 	.word	0x004005f4

00001d44 <cc_tx_empty_isr>:
    1d44:	e24ee004 	sub	lr, lr, #4
    1d48:	e92d501f 	push	{r0, r1, r2, r3, r4, ip, lr}
    1d4c:	e59f1078 	ldr	r1, [pc, #120]	; 1dcc <cc_tx_empty_isr+0x88>
    1d50:	e3a03202 	mov	r3, #536870912	; 0x20000000
    1d54:	e3a02000 	mov	r2, #0
    1d58:	e3a0c00c 	mov	ip, #12
    1d5c:	e5832000 	str	r2, [r3]
    1d60:	e5912000 	ldr	r2, [r1]
    1d64:	e5910004 	ldr	r0, [r1, #4]
    1d68:	e1520000 	cmp	r2, r0
    1d6c:	0a000012 	beq	1dbc <cc_tx_empty_isr+0x78>
    1d70:	e5930000 	ldr	r0, [r3]
    1d74:	e3100101 	tst	r0, #1073741824	; 0x40000000
    1d78:	0a000003 	beq	1d8c <cc_tx_empty_isr+0x48>
    1d7c:	e3a02001 	mov	r2, #1
    1d80:	e3a0341f 	mov	r3, #520093696	; 0x1f000000
    1d84:	e5832030 	str	r2, [r3, #48]	; 0x30
    1d88:	e8fd901f 	ldm	sp!, {r0, r1, r2, r3, r4, ip, pc}^
    1d8c:	e020129c 	mla	r0, ip, r2, r1
    1d90:	e2822001 	add	r2, r2, #1
    1d94:	e590e008 	ldr	lr, [r0, #8]
    1d98:	e590400c 	ldr	r4, [r0, #12]
    1d9c:	e5900010 	ldr	r0, [r0, #16]
    1da0:	e202200f 	and	r2, r2, #15
    1da4:	e3100802 	tst	r0, #131072	; 0x20000
    1da8:	e5812000 	str	r2, [r1]
    1dac:	e5830000 	str	r0, [r3]
    1db0:	15834004 	strne	r4, [r3, #4]
    1db4:	e583e008 	str	lr, [r3, #8]
    1db8:	eaffffe8 	b	1d60 <cc_tx_empty_isr+0x1c>
    1dbc:	e3a02b02 	mov	r2, #2048	; 0x800
    1dc0:	e3a0341f 	mov	r3, #520093696	; 0x1f000000
    1dc4:	e5832014 	str	r2, [r3, #20]
    1dc8:	eaffffeb 	b	1d7c <cc_tx_empty_isr+0x38>
    1dcc:	00400634 	.word	0x00400634

00001dd0 <dma_done_isr>:
    1dd0:	e24ee004 	sub	lr, lr, #4
    1dd4:	e92d503f 	push	{r0, r1, r2, r3, r4, r5, ip, lr}
    1dd8:	e59f0078 	ldr	r0, [pc, #120]	; 1e58 <dma_done_isr+0x88>
    1ddc:	e3a03008 	mov	r3, #8
    1de0:	e3a0c101 	mov	ip, #1073741824	; 0x40000000
    1de4:	e58c3010 	str	r3, [ip, #16]
    1de8:	e5903000 	ldr	r3, [r0]
    1dec:	e3a0e014 	mov	lr, #20
    1df0:	e022039e 	mla	r2, lr, r3, r0
    1df4:	e5904004 	ldr	r4, [r0, #4]
    1df8:	e2833001 	add	r3, r3, #1
    1dfc:	e203300f 	and	r3, r3, #15
    1e00:	e1530004 	cmp	r3, r4
    1e04:	e5921008 	ldr	r1, [r2, #8]
    1e08:	e5803000 	str	r3, [r0]
    1e0c:	e592200c 	ldr	r2, [r2, #12]
    1e10:	0a000006 	beq	1e30 <dma_done_isr+0x60>
    1e14:	e023039e 	mla	r3, lr, r3, r0
    1e18:	e593e014 	ldr	lr, [r3, #20]
    1e1c:	e5930018 	ldr	r0, [r3, #24]
    1e20:	e5933010 	ldr	r3, [r3, #16]
    1e24:	e58c3004 	str	r3, [ip, #4]
    1e28:	e58ce008 	str	lr, [ip, #8]
    1e2c:	e58c000c 	str	r0, [ip, #12]
    1e30:	e59f3024 	ldr	r3, [pc, #36]	; 1e5c <dma_done_isr+0x8c>
    1e34:	e5933008 	ldr	r3, [r3, #8]
    1e38:	e3530000 	cmp	r3, #0
    1e3c:	0a000001 	beq	1e48 <dma_done_isr+0x78>
    1e40:	e3a00001 	mov	r0, #1
    1e44:	ebfff93a 	bl	334 <schedule>
    1e48:	e3a02001 	mov	r2, #1
    1e4c:	e3a0341f 	mov	r3, #520093696	; 0x1f000000
    1e50:	e5832030 	str	r2, [r3, #48]	; 0x30
    1e54:	e8fd903f 	ldm	sp!, {r0, r1, r2, r3, r4, r5, ip, pc}^
    1e58:	004004a0 	.word	0x004004a0
    1e5c:	004005f4 	.word	0x004005f4

00001e60 <dma_done_fiqsr>:
    1e60:	e24ee004 	sub	lr, lr, #4
    1e64:	e92d503f 	push	{r0, r1, r2, r3, r4, r5, ip, lr}
    1e68:	e59f2060 	ldr	r2, [pc, #96]	; 1ed0 <dma_done_fiqsr+0x70>
    1e6c:	e3a03008 	mov	r3, #8
    1e70:	e3a0c101 	mov	ip, #1073741824	; 0x40000000
    1e74:	e58c3010 	str	r3, [ip, #16]
    1e78:	e5923000 	ldr	r3, [r2]
    1e7c:	e3a0e014 	mov	lr, #20
    1e80:	e021239e 	mla	r1, lr, r3, r2
    1e84:	e5924004 	ldr	r4, [r2, #4]
    1e88:	e2833001 	add	r3, r3, #1
    1e8c:	e203300f 	and	r3, r3, #15
    1e90:	e1530004 	cmp	r3, r4
    1e94:	e5910008 	ldr	r0, [r1, #8]
    1e98:	e5823000 	str	r3, [r2]
    1e9c:	e591100c 	ldr	r1, [r1, #12]
    1ea0:	0a000006 	beq	1ec0 <dma_done_fiqsr+0x60>
    1ea4:	e023239e 	mla	r3, lr, r3, r2
    1ea8:	e593e014 	ldr	lr, [r3, #20]
    1eac:	e5932018 	ldr	r2, [r3, #24]
    1eb0:	e5933010 	ldr	r3, [r3, #16]
    1eb4:	e58c3004 	str	r3, [ip, #4]
    1eb8:	e58ce008 	str	lr, [ip, #8]
    1ebc:	e58c200c 	str	r2, [ip, #12]
    1ec0:	e59f300c 	ldr	r3, [pc, #12]	; 1ed4 <dma_done_fiqsr+0x74>
    1ec4:	e5933008 	ldr	r3, [r3, #8]
    1ec8:	e12fff33 	blx	r3
    1ecc:	e8fd903f 	ldm	sp!, {r0, r1, r2, r3, r4, r5, ip, pc}^
    1ed0:	004004a0 	.word	0x004004a0
    1ed4:	004005f4 	.word	0x004005f4

00001ed8 <timer1_isr>:
    1ed8:	e24ee004 	sub	lr, lr, #4
    1edc:	e92d500f 	push	{r0, r1, r2, r3, ip, lr}
    1ee0:	e3a02001 	mov	r2, #1
    1ee4:	e3a03421 	mov	r3, #553648128	; 0x21000000
    1ee8:	e583200c 	str	r2, [r3, #12]
    1eec:	e59f3060 	ldr	r3, [pc, #96]	; 1f54 <timer1_isr+0x7c>
    1ef0:	e5931000 	ldr	r1, [r3]
    1ef4:	e0811002 	add	r1, r1, r2
    1ef8:	e5831000 	str	r1, [r3]
    1efc:	e59f3054 	ldr	r3, [pc, #84]	; 1f58 <timer1_isr+0x80>
    1f00:	e5933010 	ldr	r3, [r3, #16]
    1f04:	e3530000 	cmp	r3, #0
    1f08:	0a00000d 	beq	1f44 <timer1_isr+0x6c>
    1f0c:	e59f3048 	ldr	r3, [pc, #72]	; 1f5c <timer1_isr+0x84>
    1f10:	e5932038 	ldr	r2, [r3, #56]	; 0x38
    1f14:	e3520000 	cmp	r2, #0
    1f18:	0a000006 	beq	1f38 <timer1_isr+0x60>
    1f1c:	e5932044 	ldr	r2, [r3, #68]	; 0x44
    1f20:	e5930040 	ldr	r0, [r3, #64]	; 0x40
    1f24:	e2822001 	add	r2, r2, #1
    1f28:	e5832044 	str	r2, [r3, #68]	; 0x44
    1f2c:	e593203c 	ldr	r2, [r3, #60]	; 0x3c
    1f30:	e1520000 	cmp	r2, r0
    1f34:	85832040 	strhi	r2, [r3, #64]	; 0x40
    1f38:	e3a02000 	mov	r2, #0
    1f3c:	e3a00002 	mov	r0, #2
    1f40:	ebfff8fb 	bl	334 <schedule>
    1f44:	e3a02001 	mov	r2, #1
    1f48:	e3a0341f 	mov	r3, #520093696	; 0x1f000000
    1f4c:	e5832030 	str	r2, [r3, #48]	; 0x30
    1f50:	e8fd900f 	ldm	sp!, {r0, r1, r2, r3, ip, pc}^
    1f54:	004005ec 	.word	0x004005ec
    1f58:	004005f4 	.word	0x004005f4
    1f5c:	0040044c 	.word	0x0040044c

00001f60 <timer1_fiqsr>:
    1f60:	e24ee004 	sub	lr, lr, #4
    1f64:	e92d500f 	push	{r0, r1, r2, r3, ip, lr}
    1f68:	e3a02001 	mov	r2, #1
    1f6c:	e3a03421 	mov	r3, #553648128	; 0x21000000
    1f70:	e583200c 	str	r2, [r3, #12]
    1f74:	e59f301c 	ldr	r3, [pc, #28]	; 1f98 <timer1_fiqsr+0x38>
    1f78:	e3a01000 	mov	r1, #0
    1f7c:	e5930000 	ldr	r0, [r3]
    1f80:	e0800002 	add	r0, r0, r2
    1f84:	e5830000 	str	r0, [r3]
    1f88:	e59f300c 	ldr	r3, [pc, #12]	; 1f9c <timer1_fiqsr+0x3c>
    1f8c:	e5933010 	ldr	r3, [r3, #16]
    1f90:	e12fff33 	blx	r3
    1f94:	e8fd900f 	ldm	sp!, {r0, r1, r2, r3, ip, pc}^
    1f98:	004005ec 	.word	0x004005ec
    1f9c:	004005f4 	.word	0x004005f4

00001fa0 <soft_int_isr>:
    1fa0:	e24ee004 	sub	lr, lr, #4
    1fa4:	e92d500f 	push	{r0, r1, r2, r3, ip, lr}
    1fa8:	e3a0341f 	mov	r3, #520093696	; 0x1f000000
    1fac:	e3a02002 	mov	r2, #2
    1fb0:	e583201c 	str	r2, [r3, #28]
    1fb4:	e59f303c 	ldr	r3, [pc, #60]	; 1ff8 <soft_int_isr+0x58>
    1fb8:	e5933020 	ldr	r3, [r3, #32]
    1fbc:	e3530000 	cmp	r3, #0
    1fc0:	0a000005 	beq	1fdc <soft_int_isr+0x3c>
    1fc4:	e59f3030 	ldr	r3, [pc, #48]	; 1ffc <soft_int_isr+0x5c>
    1fc8:	e3a00004 	mov	r0, #4
    1fcc:	e5932000 	ldr	r2, [r3]
    1fd0:	e59f3028 	ldr	r3, [pc, #40]	; 2000 <P2P_TABLE_SIZE>
    1fd4:	e5931000 	ldr	r1, [r3]
    1fd8:	ebfff8d5 	bl	334 <schedule>
    1fdc:	e59f3020 	ldr	r3, [pc, #32]	; 2004 <P2P_TABLE_SIZE+0x4>
    1fe0:	e3a02000 	mov	r2, #0
    1fe4:	e5c32000 	strb	r2, [r3]
    1fe8:	e3a02001 	mov	r2, #1
    1fec:	e3a0341f 	mov	r3, #520093696	; 0x1f000000
    1ff0:	e5832030 	str	r2, [r3, #48]	; 0x30
    1ff4:	e8fd900f 	ldm	sp!, {r0, r1, r2, r3, ip, pc}^
    1ff8:	004005f4 	.word	0x004005f4
    1ffc:	00400498 	.word	0x00400498
    2000:	004005f0 	.word	0x004005f0
    2004:	00400350 	.word	0x00400350

00002008 <soft_int_fiqsr>:
    2008:	e24ee004 	sub	lr, lr, #4
    200c:	e92d500f 	push	{r0, r1, r2, r3, ip, lr}
    2010:	e3a02002 	mov	r2, #2
    2014:	e3a0341f 	mov	r3, #520093696	; 0x1f000000
    2018:	e583201c 	str	r2, [r3, #28]
    201c:	e59f2024 	ldr	r2, [pc, #36]	; 2048 <soft_int_fiqsr+0x40>
    2020:	e59f3024 	ldr	r3, [pc, #36]	; 204c <soft_int_fiqsr+0x44>
    2024:	e5921000 	ldr	r1, [r2]
    2028:	e59f2020 	ldr	r2, [pc, #32]	; 2050 <soft_int_fiqsr+0x48>
    202c:	e5933020 	ldr	r3, [r3, #32]
    2030:	e5920000 	ldr	r0, [r2]
    2034:	e12fff33 	blx	r3
    2038:	e59f3014 	ldr	r3, [pc, #20]	; 2054 <soft_int_fiqsr+0x4c>
    203c:	e3a02000 	mov	r2, #0
    2040:	e5c32000 	strb	r2, [r3]
    2044:	e8fd900f 	ldm	sp!, {r0, r1, r2, r3, ip, pc}^
    2048:	00400498 	.word	0x00400498
    204c:	004005f4 	.word	0x004005f4
    2050:	004005f0 	.word	0x004005f0
    2054:	00400350 	.word	0x00400350

00002058 <__io_printf_from_arm>:
    2058:	e51ff004 	ldr	pc, [pc, #-4]	; 205c <__io_printf_from_arm+0x4>
    205c:	0000115d 	.word	0x0000115d

00002060 <__init_array_end>:
    2060:	6361434d 	.word	0x6361434d
    2064:	6f6e5f6b 	.word	0x6f6e5f6b
    2068:	632e6564 	.word	0x632e6564
    206c:	00000000 	.word	0x00000000
    2070:	464e495b 	.word	0x464e495b
    2074:	20205d4f 	.word	0x20205d4f
    2078:	25282020 	.word	0x25282020
    207c:	34253a73 	.word	0x34253a73
    2080:	203a2964 	.word	0x203a2964
    2084:	206b6361 	.word	0x206b6361
    2088:	6170636d 	.word	0x6170636d
    208c:	74656b63 	.word	0x74656b63
    2090:	63657220 	.word	0x63657220
    2094:	65766569 	.word	0x65766569
    2098:	72662064 	.word	0x72662064
    209c:	6b206d6f 	.word	0x6b206d6f
    20a0:	253d7965 	.word	0x253d7965
    20a4:	79732064 	.word	0x79732064
    20a8:	635f636e 	.word	0x635f636e
    20ac:	746e756f 	.word	0x746e756f
    20b0:	0a64253d 	.word	0x0a64253d
    20b4:	00000000 	.word	0x00000000
    20b8:	6e697073 	.word	0x6e697073
    20bc:	78655f6e 	.word	0x78655f6e
    20c0:	000a7469 	.word	0x000a7469
    20c4:	726f635b 	.word	0x726f635b
    20c8:	64252065 	.word	0x64252065
    20cc:	2d2d205d 	.word	0x2d2d205d
    20d0:	2d2d2d2d 	.word	0x2d2d2d2d
    20d4:	2d2d2d2d 	.word	0x2d2d2d2d
    20d8:	2d2d2d2d 	.word	0x2d2d2d2d
    20dc:	2d2d2d2d 	.word	0x2d2d2d2d
    20e0:	2d2d2d2d 	.word	0x2d2d2d2d
    20e4:	00000a2d 	.word	0x00000a2d
    20e8:	726f635b 	.word	0x726f635b
    20ec:	64252065 	.word	0x64252065
    20f0:	7473205d 	.word	0x7473205d
    20f4:	69747261 	.word	0x69747261
    20f8:	7320676e 	.word	0x7320676e
    20fc:	6c756d69 	.word	0x6c756d69
    2100:	6f697461 	.word	0x6f697461
    2104:	00000a6e 	.word	0x00000a6e
    2108:	464e495b 	.word	0x464e495b
    210c:	20205d4f 	.word	0x20205d4f
    2110:	25282020 	.word	0x25282020
    2114:	34253a73 	.word	0x34253a73
    2118:	203a2964 	.word	0x203a2964
    211c:	5f6d756e 	.word	0x5f6d756e
    2120:	6c696863 	.word	0x6c696863
    2124:	6f6e2064 	.word	0x6f6e2064
    2128:	3a736564 	.word	0x3a736564
    212c:	000a6425 	.word	0x000a6425
    2130:	464e495b 	.word	0x464e495b
    2134:	20205d4f 	.word	0x20205d4f
    2138:	25282020 	.word	0x25282020
    213c:	34253a73 	.word	0x34253a73
    2140:	203a2964 	.word	0x203a2964
    2144:	65726170 	.word	0x65726170
    2148:	6b20746e 	.word	0x6b20746e
    214c:	253a7965 	.word	0x253a7965
    2150:	00000a64 	.word	0x00000a64
    2154:	464e495b 	.word	0x464e495b
    2158:	20205d4f 	.word	0x20205d4f
    215c:	25282020 	.word	0x25282020
    2160:	34253a73 	.word	0x34253a73
    2164:	203a2964 	.word	0x203a2964
    2168:	6c696863 	.word	0x6c696863
    216c:	656b2064 	.word	0x656b2064
    2170:	64253a79 	.word	0x64253a79
    2174:	0000000a 	.word	0x0000000a
    2178:	726f635b 	.word	0x726f635b
    217c:	64252065 	.word	0x64252065
    2180:	6973205d 	.word	0x6973205d
    2184:	616c756d 	.word	0x616c756d
    2188:	6e6f6974 	.word	0x6e6f6974
    218c:	73616c20 	.word	0x73616c20
    2190:	20646574 	.word	0x20646574
    2194:	74206425 	.word	0x74206425
    2198:	736b6369 	.word	0x736b6369
    219c:	0000000a 	.word	0x0000000a
    21a0:	726f635b 	.word	0x726f635b
    21a4:	64252065 	.word	0x64252065
    21a8:	7473205d 	.word	0x7473205d
    21ac:	6970706f 	.word	0x6970706f
    21b0:	7320676e 	.word	0x7320676e
    21b4:	6c756d69 	.word	0x6c756d69
    21b8:	6f697461 	.word	0x6f697461
    21bc:	00000a6e 	.word	0x00000a6e
    21c0:	726f635b 	.word	0x726f635b
    21c4:	64252065 	.word	0x64252065
    21c8:	2d2d205d 	.word	0x2d2d205d
    21cc:	2d2d2d2d 	.word	0x2d2d2d2d
    21d0:	2d2d2d2d 	.word	0x2d2d2d2d
    21d4:	2d2d2d2d 	.word	0x2d2d2d2d
    21d8:	2d2d2d2d 	.word	0x2d2d2d2d
    21dc:	00000a2d 	.word	0x00000a2d

000021e0 <build_name>:
    21e0:	4341434d 0000004b                       MCACK...

000021e8 <build_date>:
    21e8:	59ad4e95 2f637273 61746164 6570735f     .N.Ysrc/data_spe
    21f8:	69666963 69746163 632e6e6f 4e495b00     cification.c.[IN
    2208:	205d4f46 28202020 253a7325 3a296434     FO]    (%s:%4d):
    2218:	52445320 64204d41 20617461 69676562      SDRAM data begi
    2228:	6120736e 64612074 73657264 25203a73     ns at address: %
    2238:	0a783830 52415300 70532f4b 614e4e69     08x..SARK/SpiNNa
    2248:	0072656b 2e312e33 31300030                       ker.3.1.0.

00002252 <hex>:
    2252:	33323130 37363534 62613938 66656463     0123456789abcdef
    2262:	5b090900 5f697061 75626564 52205d67     ...[api_debug] R
    2272:	6d205254 20202063 61702020 74656b63     TR mc     packet
    2282:	25203a73 09000a64 70615b09 65645f69     s: %d....[api_de
    2292:	5d677562 52545220 64706420 20636d20     bug] RTR dpd mc 
    22a2:	6b636170 3a737465 0a642520 5b090900     packets: %d....[
    22b2:	5f697061 75626564 49205d67 74205253     api_debug] ISR t
    22c2:	776f7268 6170206e 74656b63 25203a73     hrown packets: %
    22d2:	09000a64 70615b09 65645f69 5d677562     d....[api_debug]
    22e2:	52534920 72687420 206e776f 70205246      ISR thrown FR p
    22f2:	656b6361 203a7374 000a6425 615b0909     ackets: %d....[a
    2302:	645f6970 67756265 4d44205d 75622041     pi_debug] DMA bu
    2312:	73747372 2520203a 09000a64 70615b09     rsts:  %d....[ap
    2322:	61775f69 205d6e72 6e726177 3a676e69     i_warn] warning:
    2332:	73617420 7571206b 20657565 6c6c7566      task queue full
    2342:	75252820 09000a29 70615b09 61775f69      (%u)....[api_wa
    2352:	205d6e72 6e726177 3a676e69 414d4420     rn] warning: DMA
    2362:	65757120 66206575 206c6c75 29752528      queue full (%u)
    2372:	0909000a 6970615b 7261775f 77205d6e     ....[api_warn] w
    2382:	696e7261 203a676e 6b636170 71207465     arning: packet q
    2392:	65756575 6c756620 2528206c 000a2975     ueue full (%u)..
